
build/lidar4.elf:     file format elf32-littlearm
build/lidar4.elf
architecture: armv6s-m, flags 0x00000112:
EXEC_P, HAS_SYMS, D_PAGED
start address 0x08000449

Program Header:
    LOAD off    0x00010000 vaddr 0x08000000 paddr 0x08000000 align 2**16
         filesz 0x00001640 memsz 0x00001640 flags rwx
    LOAD off    0x00020000 vaddr 0x20000000 paddr 0x08001640 align 2**16
         filesz 0x00000030 memsz 0x00000a24 flags rw-
    LOAD off    0x00000a24 vaddr 0x20000a24 paddr 0x08001670 align 2**16
         filesz 0x00000000 memsz 0x00000080 flags rw-
private flags = 5000200: [Version5 EABI] [soft-float ABI]

Sections:
Idx Name              Size      VMA       LMA       File off  Algn  Flags
  0 .isr_vector       000000c4  08000000  08000000  00010000  2**0  CONTENTS, ALLOC, LOAD, READONLY, DATA
  1 .text             00001574  080000c4  080000c4  000100c4  2**2  CONTENTS, ALLOC, LOAD, READONLY, CODE
  2 .rodata           00000000  08001638  08001638  00020030  2**0  CONTENTS, ALLOC, LOAD, DATA
  3 .init_array       00000004  08001638  08001638  00011638  2**2  CONTENTS, ALLOC, LOAD, DATA
  4 .fini_array       00000004  0800163c  0800163c  0001163c  2**2  CONTENTS, ALLOC, LOAD, DATA
  5 .data             00000030  20000000  08001640  00020000  2**2  CONTENTS, ALLOC, LOAD, DATA
  6 .bss              000009f4  20000030  08001670  00020030  2**2  ALLOC
  7 ._user_heap_stack 00000080  20000a24  08001670  00020a24  2**0  ALLOC
  8 .ARM.attributes   0000002a  00000000  00000000  00020030  2**0  CONTENTS, READONLY
  9 .comment          00000025  00000000  00000000  0002005a  2**0  CONTENTS, READONLY
 10 .debug_info       00000ec0  00000000  00000000  0002007f  2**0  CONTENTS, READONLY, DEBUGGING, OCTETS
 11 .debug_abbrev     00000208  00000000  00000000  00020f3f  2**0  CONTENTS, READONLY, DEBUGGING, OCTETS
 12 .debug_loc        00000096  00000000  00000000  00021147  2**0  CONTENTS, READONLY, DEBUGGING, OCTETS
 13 .debug_aranges    00000080  00000000  00000000  000211e0  2**3  CONTENTS, READONLY, DEBUGGING, OCTETS
 14 .debug_ranges     00000010  00000000  00000000  00021260  2**0  CONTENTS, READONLY, DEBUGGING, OCTETS
 15 .debug_line       00000416  00000000  00000000  00021270  2**0  CONTENTS, READONLY, DEBUGGING, OCTETS
 16 .debug_str        00000899  00000000  00000000  00021686  2**0  CONTENTS, READONLY, DEBUGGING, OCTETS
 17 .debug_frame      00000060  00000000  00000000  00021f20  2**2  CONTENTS, READONLY, DEBUGGING, OCTETS
SYMBOL TABLE:
08000000 l    d  .isr_vector	00000000 .isr_vector
080000c4 l    d  .text	00000000 .text
08001638 l    d  .rodata	00000000 .rodata
08001638 l    d  .init_array	00000000 .init_array
0800163c l    d  .fini_array	00000000 .fini_array
20000000 l    d  .data	00000000 .data
20000030 l    d  .bss	00000000 .bss
20000a24 l    d  ._user_heap_stack	00000000 ._user_heap_stack
00000000 l    d  .ARM.attributes	00000000 .ARM.attributes
00000000 l    d  .comment	00000000 .comment
00000000 l    d  .debug_info	00000000 .debug_info
00000000 l    d  .debug_abbrev	00000000 .debug_abbrev
00000000 l    d  .debug_loc	00000000 .debug_loc
00000000 l    d  .debug_aranges	00000000 .debug_aranges
00000000 l    d  .debug_ranges	00000000 .debug_ranges
00000000 l    d  .debug_line	00000000 .debug_line
00000000 l    d  .debug_str	00000000 .debug_str
00000000 l    d  .debug_frame	00000000 .debug_frame
00000000 l    df *ABS*	00000000 C:\Users\KONSTA~1\AppData\Local\Temp\ccrZkxIz.o
f108f85f l       *ABS*	00000000 BootRAM
08000458 l       .text	00000000 LoopCopyDataInit
08000450 l       .text	00000000 CopyDataInit
0800046c l       .text	00000000 LoopFillZerobss
08000466 l       .text	00000000 FillZerobss
0800047a l       .text	00000000 LoopForever
08000494 l       .text	00000000 Infinite_Loop
00000000 l    df *ABS*	00000000 _udivsi3.o
080000c4 l       .text	00000000 .udivsi3_skip_div0_test
00000000 l    df *ABS*	00000000 _divsi3.o
080001d8 l       .text	00000000 .divsi3_skip_div0_test
00000000 l    df *ABS*	00000000 _dvmd_tls.o
00000000 l    df *ABS*	00000000 crtstuff.c
08001620 l     O .text	00000000 __EH_FRAME_BEGIN__
080003b0 l     F .text	00000000 deregister_tm_clones
080003d0 l     F .text	00000000 register_tm_clones
080003f8 l     F .text	00000000 __do_global_dtors_aux
20000030 l     O .bss	00000000 completed.6739
0800163c l     O .fini_array	00000000 __do_global_dtors_aux_fini_array_entry
08000424 l     F .text	00000000 frame_dummy
20000034 l     O .bss	00000000 object.6744
08001638 l     O .init_array	00000000 __frame_dummy_init_array_entry
00000000 l    df *ABS*	00000000 
08000498 l     F .text	00000034 uart_tx_dma_config.constprop.0
080004cc l     F .text	0000003c DMA_Init
08000508 l     F .text	00000198 RCC_GetClocksFreq
080006a0 l     F .text	000000aa GPIO_Init
0800074c l     F .text	000000bc capture_start
08000808 l     F .text	00000078 meas_handler
08000880 l     F .text	00000028 stop_hardware_capture
20000054 l     O .bss	00000100 data_adc_laser0
2000045c l     O .bss	000002d8 res_buf0
20000734 l     O .bss	000002d8 res_buf1
20000254 l     O .bss	00000100 data_adc_off0
20000154 l     O .bss	00000100 data_adc_laser1
20000354 l     O .bss	00000100 data_adc_off1
2000004c l     O .bss	00000002 cap_number
2000004e l     O .bss	00000002 capture_now
20000050 l     O .bss	00000002 capture_old
20000454 l     O .bss	00000002 enc_period
20000456 l     O .bss	00000001 meas_status
20000457 l     O .bss	00000001 overspeed_flag
20000458 l     O .bss	00000001 pos.7548
20000459 l     O .bss	00000001 proc_done_flag
20000a0c l     O .bss	00000001 res_buf_num
20000a0d l     O .bss	00000001 rot_num
20000a0e l     O .bss	00000002 rot_period
20000a10 l     O .bss	00000001 sync_failed_flag
20000a12 l     O .bss	00000002 time_tmp
20000a14 l     O .bss	00000008 times.7547
20000a1c l     O .bss	00000001 tmp_flag.6518
20000a1e l     O .bss	00000002 zero_now.7528
20000a20 l     O .bss	00000002 zero_old.7527
20000000 l     O .data	00000010 AHBPrescTable
20000010 l     O .data	00000001 AN_WIDTH
20000014 l     O .data	00000010 APBAHBPrescTable
20000024 l     O .data	00000004 SystemCoreClock
20000028 l     O .data	00000004 data_adc_laser_p
2000002c l     O .data	00000004 data_adc_off_p
00000000 l    df *ABS*	00000000 memset.c
00000000 l    df *ABS*	00000000 c:/!tools/gcc/arm-none-eabi-gcc/bin/../lib/gcc/arm-none-eabi/9.3.0/thumb/v6-m/nofp/crti.o
00000000 l    df *ABS*	00000000 c:/!tools/gcc/arm-none-eabi-gcc/bin/../lib/gcc/arm-none-eabi/9.3.0/thumb/v6-m/nofp/crtn.o
00000000 l    df *ABS*	00000000 
08001640 l       .fini_array	00000000 __fini_array_end
0800163c l       .fini_array	00000000 __fini_array_start
0800163c l       .init_array	00000000 __init_array_end
08001638 l       .rodata	00000000 __preinit_array_end
08001638 l       .init_array	00000000 __init_array_start
08001638 l       .rodata	00000000 __preinit_array_start
08000494  w    F .text	00000002 TIM1_CC_IRQHandler
080008e4 g     F .text	00000002 HardFault_Handler
00000080 g       *ABS*	00000000 _Min_Stack_Size
080008d4 g     F .text	00000002 SysTick_Handler
08001640 g       *ABS*	00000000 _sidata
080008dc g     F .text	00000002 PendSV_Handler
080008d8 g     F .text	00000002 NMI_Handler
08001638 g       .rodata	00000000 __exidx_end
08000494  w    F .text	00000002 I2C1_IRQHandler
08001638 g       .text	00000000 _etext
20000030 g       .bss	00000000 _sbss
20000030 g     O .data	00000000 .hidden __TMC_END__
080000c4 g     F .text	0000010a .hidden __udivsi3
20000030 g       .bss	00000000 __bss_start__
20000000 g       .data	00000000 _sdata
08000494  w    F .text	00000002 SPI1_IRQHandler
08001638 g       .rodata	00000000 __exidx_start
08000494  w    F .text	00000002 EXTI2_3_IRQHandler
08000494  w    F .text	00000002 ADC1_IRQHandler
08001620 g     F .text	00000000 _init
08000494  w    F .text	00000002 I2C2_IRQHandler
080012ec g     F .text	00000280 TIM17_IRQHandler
08000494  w    F .text	00000002 RTC_IRQHandler
20000a24 g       .bss	00000000 _ebss
08000448  w    F .text	00000034 Reset_Handler
080001d8 g     F .text	00000000 .hidden __aeabi_idiv
0800156c g     F .text	000000a4 TIM16_IRQHandler
20000a24 g       .bss	00000000 __bss_end__
08000494  w    F .text	00000002 TIM3_IRQHandler
08000494  w    F .text	00000002 EXTI4_15_IRQHandler
08000494  w    F .text	00000002 RCC_IRQHandler
00000000 g       *ABS*	00000000 _Min_Heap_Size
080008a8 g     F .text	0000002c DMA1_Channel1_IRQHandler
08000494 g       .text	00000002 Default_Handler
08000494  w    F .text	00000002 TIM14_IRQHandler
08000494  w    F .text	00000002 DMA1_Channel4_5_IRQHandler
08000494  w    F .text	00000002 TIM15_IRQHandler
08000494  w    F .text	00000002 EXTI0_1_IRQHandler
080003ac  w    F .text	00000002 .hidden __aeabi_ldiv0
08000494  w    F .text	00000002 SPI2_IRQHandler
08001610 g     F .text	00000010 memset
080008e8 g     F .text	000008f4 main
080000c4 g     F .text	00000000 .hidden __aeabi_uidiv
080008e0 g     F .text	00000002 SVC_Handler
080001d8 g     F .text	000001cc .hidden __divsi3
080011dc g     F .text	00000110 SystemInit
0800162c g     F .text	00000000 _fini
08000494  w    F .text	00000002 WWDG_IRQHandler
08000494  w    F .text	00000002 DMA1_Channel2_3_IRQHandler
20001000 g       *ABS*	00000000 _estack
080001d0 g     F .text	00000008 .hidden __aeabi_uidivmod
20000030 g       .data	00000000 _edata
08000494  w    F .text	00000002 USART2_IRQHandler
08000000 g     O .isr_vector	00000000 g_pfnVectors
080003ac  w    F .text	00000002 .hidden __aeabi_idiv0
08000494  w    F .text	00000002 FLASH_IRQHandler
08000494  w    F .text	00000002 USART1_IRQHandler
08000494  w    F .text	00000002 TIM1_BRK_UP_TRG_COM_IRQHandler
080003a4 g     F .text	00000008 .hidden __aeabi_idivmod


Contents of section .isr_vector:
 8000000 00100020 49040008 d9080008 e5080008  ... I...........
 8000010 00000000 00000000 00000000 00000000  ................
 8000020 00000000 00000000 00000000 e1080008  ................
 8000030 00000000 00000000 dd080008 d5080008  ................
 8000040 95040008 00000000 95040008 95040008  ................
 8000050 95040008 95040008 95040008 95040008  ................
 8000060 00000000 a9080008 95040008 95040008  ................
 8000070 95040008 95040008 95040008 00000000  ................
 8000080 95040008 00000000 00000000 95040008  ................
 8000090 95040008 6d150008 ed120008 95040008  ....m...........
 80000a0 95040008 95040008 95040008 95040008  ................
 80000b0 95040008 00000000 00000000 00000000  ................
 80000c0 5ff808f1                             _...            
Contents of section .text:
 80000c4 00224308 8b4274d3 03098b42 5fd3030a  ."C..Bt....B_...
 80000d4 8b4244d3 030b8b42 28d3030c 8b420dd3  .BD....B(....B..
 80000e4 ff220902 12ba030c 8b4202d3 12120902  .".......B......
 80000f4 65d0030b 8b4219d3 00e0090a c30b8b42  e....B.........B
 8000104 01d3cb03 c01a5241 830b8b42 01d38b03  ......RA...B....
 8000114 c01a5241 430b8b42 01d34b03 c01a5241  ..RAC..B..K...RA
 8000124 030b8b42 01d30b03 c01a5241 c30a8b42  ...B......RA...B
 8000134 01d3cb02 c01a5241 830a8b42 01d38b02  ......RA...B....
 8000144 c01a5241 430a8b42 01d34b02 c01a5241  ..RAC..B..K...RA
 8000154 030a8b42 01d30b02 c01a5241 cdd2c309  ...B......RA....
 8000164 8b4201d3 cb01c01a 52418309 8b4201d3  .B......RA...B..
 8000174 8b01c01a 52414309 8b4201d3 4b01c01a  ....RAC..B..K...
 8000184 52410309 8b4201d3 0b01c01a 5241c308  RA...B......RA..
 8000194 8b4201d3 cb00c01a 52418308 8b4201d3  .B......RA...B..
 80001a4 8b00c01a 52414308 8b4201d3 4b00c01a  ....RAC..B..K...
 80001b4 5241411a 00d20146 52411046 7047ffe7  RAA....FRA.FpG..
 80001c4 01b50020 00f0f0f8 02bdc046 0029f7d0  ... .......F.)..
 80001d4 76e77047 03460b43 7fd40022 43088b42  v.pG.F.C..."C..B
 80001e4 74d30309 8b425fd3 030a8b42 44d3030b  t....B_....BD...
 80001f4 8b4228d3 030c8b42 0dd3ff22 090212ba  .B(....B..."....
 8000204 030c8b42 02d31212 090265d0 030b8b42  ...B......e....B
 8000214 19d300e0 090ac30b 8b4201d3 cb03c01a  .........B......
 8000224 5241830b 8b4201d3 8b03c01a 5241430b  RA...B......RAC.
 8000234 8b4201d3 4b03c01a 5241030b 8b4201d3  .B..K...RA...B..
 8000244 0b03c01a 5241c30a 8b4201d3 cb02c01a  ....RA...B......
 8000254 5241830a 8b4201d3 8b02c01a 5241430a  RA...B......RAC.
 8000264 8b4201d3 4b02c01a 5241030a 8b4201d3  .B..K...RA...B..
 8000274 0b02c01a 5241cdd2 c3098b42 01d3cb01  ....RA.....B....
 8000284 c01a5241 83098b42 01d38b01 c01a5241  ..RA...B......RA
 8000294 43098b42 01d34b01 c01a5241 03098b42  C..B..K...RA...B
 80002a4 01d30b01 c01a5241 c3088b42 01d3cb00  ......RA...B....
 80002b4 c01a5241 83088b42 01d38b00 c01a5241  ..RA...B......RA
 80002c4 43088b42 01d34b00 c01a5241 411a00d2  C..B..K...RAA...
 80002d4 01465241 10467047 5de0ca0f 00d04942  .FRA.FpG].....IB
 80002e4 031000d3 40425340 00229c46 03098b42  ....@BS@.".F...B
 80002f4 2dd3030a 8b4212d3 fc228901 12ba030a  -....B..."......
 8000304 8b420cd3 89019211 8b4208d3 89019211  .B.......B......
 8000314 8b4204d3 89013ad0 921100e0 8909c309  .B....:.........
 8000324 8b4201d3 cb01c01a 52418309 8b4201d3  .B......RA...B..
 8000334 8b01c01a 52414309 8b4201d3 4b01c01a  ....RAC..B..K...
 8000344 52410309 8b4201d3 0b01c01a 5241c308  RA...B......RA..
 8000354 8b4201d3 cb00c01a 52418308 8b4201d3  .B......RA...B..
 8000364 8b00c01a 5241d9d2 43088b42 01d34b00  ....RA..C..B..K.
 8000374 c01a5241 411a00d2 01466346 52415b10  ..RAA....FcFRA[.
 8000384 104601d3 4042002b 00d54942 70476346  .F..@B.+..IBpGcF
 8000394 5b1000d3 404201b5 002000f0 05f802bd  [...@B... ......
 80003a4 0029f8d0 16e77047 7047c046 0448054b  .)....pGpG.F.H.K
 80003b4 10b58342 03d0044b 002b00d0 984710bd  ...B...K.+...G..
 80003c4 30000020 30000020 00000000 06480749  0.. 0.. .....H.I
 80003d4 091a8b10 c90fc918 10b54910 03d0044b  ..........I....K
 80003e4 002b00d0 984710bd 30000020 30000020  .+...G..0.. 0.. 
 80003f4 00000000 10b5074c 2378002b 09d1fff7  .......L#x.+....
 8000404 d5ff054b 002b02d0 044800e0 00bf0123  ...K.+...H.....#
 8000414 237010bd 30000020 00000000 20160008  #p..0.. .... ...
 8000424 054b10b5 002b03d0 04490548 00e000bf  .K...+...I.H....
 8000434 fff7ccff 10bdc046 00000000 34000020  .......F....4.. 
 8000444 20160008 0c488546 002103e0 0b4b5b58   ....H.F.!...K[X
 8000454 43500431 0a480b4b 42189a42 f6d30a4a  CP.1.H.KB..B...J
 8000464 02e00023 13600432 084b9a42 f9d300f0  ...#.`.2.K.B....
 8000474 b3fe00f0 37fafee7 00100020 40160008  ....7...... @...
 8000484 00000020 30000020 30000020 240a0020  ... 0.. 0.. $.. 
 8000494 fee70000 094b0a49 1a680a40 1a60d860  .....K.I.h.@.`.`
 80004a4 b6202021 82000748 5a604160 60314160  .  !...HZ`A``1A`
 80004b4 1a687f39 0a431a60 7047c046 1c000240  .h.9.C.`pG.F...@
 80004c4 feff0000 00000240 03680d4a 10b51a40  .......@.h.J...@
 80004d4 0c6a8b68 23430c69 23434c69 23438c69  .j.h#C.i#CLi#C.i
 80004e4 2343cc69 23434c6a 23438c6a 23431343  #C.i#CLj#C.j#C.C
 80004f4 0360ca68 0b684968 42608360 c16010bd  .`.h.hIhB`.`.`..
 8000504 0f80ffff f8b50c23 5e4a0400 51680b40  .......#^J..Qh.@
 8000514 082b00d1 8ce00c2b 00d185e0 5a482060  .+.....+....ZH `
 8000524 0020584f 7e683506 290f2568 574e2a00  . XO~h5.).%hWN*.
 8000534 735cda40 62607968 4b05590f 765cf240  s\.@b`yhK.Y.v\.@
 8000544 a2603b6b db0566d4 514be360 40264d4f  .`;k..f.QK.`@&MO
 8000554 396b0e40 71424e41 12217342 80260b40  9k.@qBNA.!sB.&.@
 8000564 31028c46 63442361 3f6bfb06 51d52b00  1..FcD#a?k..Q.+.
 8000574 03274449 63610e6b 37423bd1 a261c023  .'DIca.k7B;..a.#
 8000584 40499b02 0f6b1f42 21d1e261 c0233d49  @I...k.B!..a.#=I
 8000594 1f030e6b 3e4207d1 22623a4d 2e6b3306  ...k>B.."b:M.k3.
 80005a4 00d43c48 6062f8bd 80260a6b f3023a40  ..<H`b...&.k..:@
 80005b4 9a424bd0 80250a6b 2e033a40 b24258d0  .BK..%.k..:@.BX.
 80005c4 096b3940 b942e8d1 2f4f2762 e5e78027  .k9@.B../O'b...'
 80005d4 0e6b7f02 1e40be42 3ad08027 0e6bbf02  .k...@.B:..'.k..
 80005e4 1e40be42 49d0096b 19409942 ced1264b  .@.BI..k.@.B..&K
 80005f4 e361cbe7 0b6b3b40 012b2bd0 0e6b3e40  .a...k;@.++..k>@
 8000604 022e32d0 096b0f40 032fb8d1 1e4fa761  ..2..k.@./...O.a
 8000614 b5e71d4b ace77f68 7b0402d4 5608e660  ...K...h{...V..`
 8000624 94e79108 e16091e7 1a4a0260 002078e7  .....`...J.`. x.
 8000634 0f27c021 50685668 850c3d40 4b020235  .'.!PhVh..=@K..5
 8000644 1e4209d1 14486843 20606ae7 2562a4e7  .B...HhC `j.%b..
 8000654 e5619be7 a56192e7 d16a0b48 39400131  .a...a...j.H9@.1
 8000664 fff72efd 68432060 5be78023 1e02a661  ....hC `[..#...a
 8000674 85e78023 1a022262 8fe78026 3702e761  ...#.."b...&7..a
 8000684 84e7c046 00100240 00127a00 14000020  ...F...@..z.... 
 8000694 809fd500 006cdc02 00093d00 f0b5de46  .....l....=....F
 80006a4 57464e46 45460122 e0b59346 02320023  WFNFEF."...F.2.#
 80006b4 94460f68 83b002e0 0133102b 3cd05a46  .F.h.....3.+<.ZF
 80006c4 9a401400 3c40a242 f6d15d00 a8466546  .@..<@.B..]..FeF
 80006d4 4646b540 ed430c79 0195661e 012e15d8  FF.@.C.y..f.....
 80006e4 86682e40 86608568 4e79aa46 4546ae40  .h.@.`.hNy.FEF.@
 80006f4 35005646 2e438660 85889543 85808e79  5.VF.C.`...C...y
 8000704 82883500 9d402a43 92b28280 0668019d  ..5..@*C.....h..
 8000714 01333540 4646b440 05600268 14430460  .35@FF.@.`.h.C.`
 8000724 6446b440 c568a543 c560ca79 c568b240  dF.@.h.C.`.y.h.@
 8000734 2a43c260 102bc2d1 03b0f0bc bb46b246  *C.`.+.......F.F
 8000744 a946a046 f0bdc046 f0b5c646 00b58025  .F.F...F...F...%
 8000754 82b09024 6b460600 01270020 e405ad00  ...$kF...'. ....
 8000764 00959871 9f808046 69462000 fff796ff  ...q...FiF .....
 8000774 0223a361 c046c046 c046c046 c046c046  .#.a.F.F.F.F.F.F
 8000784 c046c046 a561c046 c046c046 c046c046  .F.F.a.F.F.F.F.F
 8000794 c046c046 c0462385 c046c046 c046c046  .F.F.F#..F.F.F.F
 80007a4 c046c046 c046c046 25854146 00956d46  .F.F.F.F%.AF..mF
 80007b4 2000ab80 a9716946 fff770ff 04234046   ....qiF..p..#@F
 80007c4 0c4a0d4d 94681c43 94600c4a 68621168  .J.M.h.C.`.Jhb.h
 80007d4 0b4c0120 21401160 d6608026 56601368  .L. !@.`.`.&V`.h
 80007e4 3b431360 2f880743 bab22a80 02b080bc  ;C.`/..C..*.....
 80007f4 b846f0bd 00240140 002c0140 08000240  .F...$.@.,.@...@
 8000804 feff0000 10b5194c 2278d3b2 022a18d0  .......L"x...*..
 8000814 022b0ed8 002b1bd0 90231821 d805828a  .+...+...#.!....
 8000824 134b8a43 82821868 fff78eff 03202070  .K.C...h.....  p
 8000834 10bd032b fcd10422 00232270 0d4c2370  ...+...".#"p.L#p
 8000844 f6e70d48 0068fff7 7fff0321 2170efe7  ...H.h.....!!p..
 8000854 90201821 c205938a 07480b43 93820068  . .!.....H.C...h
 8000864 fff772ff 01222270 e2e7c046 56040020  ..r..""p...FV.. 
 8000874 28000020 59040020 2c000020 01210020  (.. Y.. ,.. .!. 
 8000884 054b1a88 8a431a80 044a5862 13680449  .K...C...JXb.h.I
 8000894 0b401360 7047c046 002c0140 08000240  .@.`pG.F.,.@...@
 80008a4 feff0000 094b10b5 18688307 03d5fff7  .....K...h......
 80008b4 e5fffff7 a7ff0822 044b1968 0a4200d0  .......".K.h.B..
 80008c4 5a600123 01484360 10bdc046 00000240  Z`.#.HC`...F...@
 80008d4 7047c046 7047c046 7047c046 7047c046  pG.FpG.FpG.FpG.F
 80008e4 fee7c046 0121f0b5 57464e46 4546de46  ...F.!..WFNFEF.F
 80008f4 154be0b5 1a681548 0a431a60 5c68144e  .K...h.H.C.`\h.N
 8000904 04405c60 1d68134a 35400f26 1d601f68  .@\`.h.J5@.&.`.h
 8000914 11481740 1f605c68 104a0440 5c60dd6a  .H.@.`\h.J.@\`.j
 8000924 0f48b543 dd620025 1f6bd3b0 17401f63  .H.C.b.%.k...@.c
 8000934 5c6ba027 8c435c63 9d600570 01708021  \k.'.C\c.`.p.p.!
 8000944 04958e02 fc010fe0 00100240 0cb8ff08  ...........@....
 8000954 fffff6fe fffffbff ffffc0ff acfef0ff  ................
 8000964 02100240 002a07d1 1a68049d 32400135  ...@.*...h..2@.5
 8000974 04950498 a042f5d1 f04b0121 1e68b203  .....B...K.!.h..
 8000984 00d58fe3 ee4fb846 fa2512a8 fff7bafd  .....O.F.%......
 8000994 139f08a8 00970397 fff7b4fd 0998a900  ................
 80009a4 fff78efb 80220138 5404a042 0dd2c025  .....".8T..B...%
 80009b4 0024e44e 2a067060 e348016a 0b021f0a  .$.N*.p`.H.j....
 80009c4 17430762 b4600734 34600125 c023db4e  .C.b.`.44`.%.#.N
 80009d4 9022b069 df022843 b0617169 d4050f43  .".i..(C.aqi...C
 80009e4 77610227 200006a9 80260697 0795fff7  wa.' ....&......
 80009f4 55fe4423 02a9ca18 b0004621 12900020  U.D#......F!... 
 8000a04 02ab1580 5a181070 12a92000 fff746fe  ....Z..p.. ...F.
 8000a14 f021606a 02aa8843 6062636a d0390b43  .!`j...C`bcj.9.C
 8000a24 63620695 03252000 06a91575 fff736fe  cb...% ....u..6.
 8000a34 18200126 069002a9 2000c44c 0e7506a9  . .&.... ..L.u..
 8000a44 fff72cfe 200006a9 069702af 3e75fff7  ..,. .......>u..
 8000a54 25fe0223 a68a12a8 1e43a682 fff752fd  %..#.....C....R.
 8000a64 1398bb49 0090fff7 2bfb4501 2a1a9100  ...I....+.E.*...
 8000a74 0f18fc00 0594059e 002e05d0 059b013b  ...............;
 8000a84 05930598 0028f9d1 80228026 ab4d9702  .....(...".&.M..
 8000a94 6969f301 0f430321 6f61ac69 ad4a2343  ii...C.!oa.i.J#C
 8000aa4 ab61286b 80238843 28632f6b aa4e3a43  .a(k.#.C(c/k.N:C
 8000ab4 2a639025 e805046a 04223440 01260462  *c.%...j."4@.&.b
 8000ac4 016a5f00 a54d0f43 07620795 0825a44c  .j_..M.C.b...%.L
 8000ad4 06a90692 fff7e2fd 2068a24b b0432060  ........ h.K.C `
 8000ae4 6168a14a 19406160 2768a04e 17402f43  ah.J.@a`'h.N.@/C
 8000af4 2760a068 3040a060 12a8fff7 03fd2468  '`.h0@.`......$h
 8000b04 189f2304 00d57f00 e1213800 4902fff7  ..#......!8.I...
 8000b14 d7fae123 05005902 3800fff7 57fbe122  ...#..Y.8...W.."
 8000b24 00201602 b1424041 8d4f2c18 39680b04  . ...B@A.O,.9h..
 8000b34 04d58f4b 2507680f 1c400443 8027a2b2  ...K%.h..@.C.'..
 8000b44 874c8025 a281a668 2d013e43 a6600126  .L.%...h-.>C.`.&
 8000b54 2168884f 31432160 4146784c a0692843  !h.O1C!`AFxL.i(C
 8000b64 a061e368 2b43e360 e2683a40 e2600868  .a.h+C.`.h:@.`.h
 8000b74 81498346 fff7a4fa 804b0190 1988471e  .I.F.....K....G.
 8000b84 7f4a0020 11401980 1021df62 18851886  .J. .@...!.b....
 8000b94 9e821f8c 8f431f84 198c9a88 1f8b9046  .....C.........F
 8000ba4 784a9146 1740c022 d2019246 1743e022  xJ.F.@."...F.C."
 8000bb4 91430a00 30211143 42460091 72490a40  .C..0!.CBF..rI.@
 8000bc4 9a801f83 0a27009a 9f631a84 198c6f4f  .....'...c....oO
 8000bd4 019a3940 1984198c 9f888846 bc464f46  ..9@.......F.FOF
 8000be4 998b0b3a 39405746 0f43b946 47466849  ...:9@WF.C.FGFhI
 8000bf4 3940c027 bf010f43 ba466746 65490f40  9@.'...C.FgFeI.@
 8000c04 9f804f46 9f831a64 52461a84 1a8b594f  ..OF...dRF....YO
 8000c14 3a402a43 1a839a8b 17403d43 9d838025  :@*C.....@=C...%
 8000c24 1f882f43 1f808027 3c3d5a5b 3f023a43  ../C...'<=Z[?.:C
 8000c34 5a538023 a5699a00 2a438025 eb018025  ZS.#.i..*C.%...%
 8000c44 a2616768 544a3940 61606168 0b436360  .aghTJ9@a`ah.Cc`
 8000c54 276b6b00 17408822 2763216b d5000b43  'kk..@."'c!k...C
 8000c64 23634e4c 4e49e768 39400227 0d43e560  #cNLNI.h9@.'.C.`
 8000c74 a36a3343 a3626061 e068b843 e060e168  .j3C.b`a.h.C.`.h
 8000c84 e160e268 3243e260 a5682e43 a6600126  .`.h2C.`.h.C.`.&
 8000c94 b2465046 23681842 fbd00421 a768274d  .FPF#h.B...!.h'M
 8000ca4 0f43a760 6c690f22 04436c61 00243d4e  .C.`li.".Cla.$=N
 8000cb4 3d483368 3d4f0340 33603460 7460b460  =H3h=O.@3`4`t`.`
 8000cc4 f4607968 3a481143 79608021 80221290  .`yh:H.Cy`.!."..
 8000cd4 c020b846 374f8946 15911791 8031d300  . .F7O.F.....1..
 8000ce4 13971891 870112a9 30001494 16941993  ........0.......
 8000cf4 1a941b97 1c94fff7 e7fb5346 32682e4f  ..........SF2h.O
 8000d04 1a433800 326012a9 fff7defb c2230222  .C8.2`.......#."
 8000d14 99008023 30681043 3060284e 284a7058  ...#0h.C0`(N(JpX
 8000d24 1040da01 02437250 80215246 88003060  .@...CrP.!RF..0`
 8000d34 6b691d48 13436b61 396843e0 00100240  ki.H.Cka9hC....@
 8000d44 24000020 10e000e0 00ed00e0 00040048  $.. ...........H
 8000d54 10270000 01000010 fff0ffff 02030000  .'..............
 8000d64 00380140 ffcfffff f3e9ffff fffcffff  .8.@............
 8000d74 f0ff0000 fff7ffff 00530700 002c0140  .........S...,.@
 8000d84 8ffcffff ff8cffff fff3ffff ffefffff  ................
 8000d94 ffdfffff ffbfffff fffeffff 00240140  .............$.@
 8000da4 03d2ffff 08000240 feff0000 00000240  .......@.......@
 8000db4 40240140 54000020 1c000240 00e100e0  @$.@T.. ...@....
 8000dc4 ff00ffff 42460140 3960f021 3c607c60  ....BF.@9`.!<`|`
 8000dd4 bc60fc60 5368d548 0b435360 80221290  .`.`Sh.H.CS`."..
 8000de4 93051020 13934a46 80231490 06381590  ... ..JF.#...8..
 8000df4 17925801 4246a823 16941894 19941a94  ..X.BF.#........
 8000e04 1b901c94 d2584046 8a434146 ca50ca58  .....X@F.CAF.P.X
 8000e14 49460a43 c25012a9 3800fff7 55fb8023  IF.C.P..8...U..#
 8000e24 af69da02 3a439027 4846c149 ff05aa61  .i..:C.'HF.I...a
 8000e34 12901391 380012a9 fff730fc 3b6a1a01  ....8.....0.;j..
 8000e44 a0231009 3862396a da050a43 3a625846  .#..8b9j...C:bXF
 8000e54 b849fff7 35f9b84b 013887b2 b7491888  .I..5..K.8...I..
 8000e64 b74a0840 18805046 da62b946 1f85f327  .J.@..PF.b.F...'
 8000e74 1c869882 198c9446 81431984 198b1a8c  .......F.C......
 8000e84 b943023f 39431983 0c21e73f 3800ba43  .C.?9C...!.?8..C
 8000e94 073f3a43 1a841a8b 8a431a83 1f8b0a39  .?:C.....C.....9
 8000ea4 bab20327 1a837a42 1a82c522 9f899200  ...'..zB..."....
 8000eb4 0f43b9b2 9981b758 3900a24f 3940c027  .C.....X9..O9@.'
 8000ec4 3f040f43 8021b750 cf038021 8b465946  ?..C.!.P...!.FYF
 8000ed4 37601f88 0f430121 bfb21f80 1f880f43  7`...C.!.......C
 8000ee4 1f808023 af699b02 1f43af61 ef687231  ...#.i...C.a.hr1
 8000ef4 3b43eb60 944feb68 3b40eb60 934b8f4f  ;C.`.O.h;@.`.K.O
 8000f04 1d883d40 1d804f46 6546dd62 1f851c86  ..=@..OFeF.b....
 8000f14 54469c82 1f8ca743 1f841c8c 9d881f8b  TF.....C........
 8000f24 84438f43 443002a9 08180188 02a80c43  .C.CD0.........C
 8000f34 04218c43 02390c43 42314118 0888a4b2  .!.C.9.CB1A.....
 8000f44 04435020 7d492940 02ad8a46 29185220  .CP }I)@...F).R 
 8000f54 0d8802a9 09180888 05435046 28439880  .........CPF(C..
 8000f64 1f836427 5f631c84 5c461d88 08272543  ..d'_c..\F...'%C
 8000f74 a9b20325 6c42c025 1980188b b8433843  ...%lB.%.....C8C
 8000f84 18831c82 99890534 0c43a0b2 9881b758  .......4.C.....X
 8000f94 6f4b2c02 1f403c43 b4508022 00239103  oK,..@<C.P.".#..
 8000fa4 31606c4e 99463078 6b4f8346 b8464546  1`lN.F0xkO.F.FEF
 8000fb4 6a4a2c88 1178a4b2 0429f8d1 684e3078  jJ,..x...)..hN0x
 8000fc4 0028f4d1 6930ff30 84425bd2 654f664d  .(..i0.0.B[.eOfM
 8000fd4 3b682a68 1f009246 00200022 00250021  ;h*h...F. .".%.!
 8000fe4 a44612ae 0be01c1b a3b23380 9d4201d2  .F........3..B..
 8000ff4 1d000a00 01310236 02308029 0bd05446  .....1.6.0.)..TF
 8001004 3b5a245a a342eed8 4b460131 33800230  ;Z$Z.B..KF.13..0
 8001014 02368029 f3d16746 132a37d8 03240320  .6.)..gF.*7..$. 
 8001024 0439524e 3070a242 00d22200 8a4200d9  .9RN0p.B.."..B..
 8001034 0a001319 9c46131b 634531d2 12a98a46  .....F..cE1....F
 8001044 64460021 0020bc46 5a005244 1f001688  dF.!. .FZ.RD....
 8001054 01337743 8919c019 02329c42 f6d86746  .3wC.....2.B..gF
 8001064 00230029 04d06433 5843fff7 29f883b2  .#.)..d3XC..)...
 8001074 312d00d8 01235d46 04377800 002d09d1  1-...#]F.7x..-..
 8001084 3b490b52 0126364c 267090e7 77210824  ;I.R.&6L&p..w!.$
 8001094 0820c6e7 0126374a 314c1352 267086e7  . ...&7J1L.R&p..
 80010a4 0023e5e7 1025344a 14682543 15601068  .#...%4J.h%C.`.h
 80010b4 324d8843 01431160 f0215e68 304a8e43  2M.C.C.`.!^h0J.C
 80010c4 5e605f68 88261740 5f605c68 80222c40  ^`_h.&.@_`\h.",@
 80010d4 80255c60 58687103 01435960 1f685404  .%\`Xhq..CY`.hT.
 80010e4 3c431c60 a8041e68 0642fcd0 03210222  <C.`...h.B...!."
 80010f4 0c255f68 8f433a43 5a60224b 58682840  .%_h.C:CZ`"KXh(@
 8001104 0828fbd1 5e682e40 082e43d0 1e4c1f49  .(..^h.@..C..L.I
 8001114 a0462160 41461b4b 1d4a5e68 0b683706  .F!`AF.K.J^h.h7.
 8001124 3d0f545d e3400b60 2ee4c046 28380140  =.T].@.`...F(8.@
 8001134 02000001 50c30000 00480140 fffcffff  ....P....H.@....
 8001144 ffff0000 ffff00ff fffffdff 00440140  .............D.@
 8001154 ff00ffff 0c0a0020 4c000020 56040020  ....... L.. V.. 
 8001164 59040020 28000020 2c000020 10000020  Y.. (.. ,.. ... 
 8001174 5c040020 34070020 00200240 ff7fc2ff  \.. 4.. . .@....
 8001184 fff8ffff 00100240 24000020 00127a00  .......@$.. ..z.
 8001194 00000020 0f22c021 5f685d68 bc0c1440  ... .".!_h]h...@
 80011a4 48020234 054205d1 084d094f 6c43b846  H..4.B...M.OlC.F
 80011b4 3c60afe7 d96a064b 11409846 05480131  <`...j.K.@.F.H.1
 80011c4 fef77eff 46464443 3460a3e7 00093d00  ..~.FFDC4`....=.
 80011d4 24000020 00127a00 01213b4b 3b481a68  $.. ..z..!;K;H.h
 80011e4 82b00a43 1a605a68 02405a60 1a683848  ...C.`Zh.@Z`.h8H
 80011f4 02401a60 1a683748 02401a60 5a683648  .@.`.h7H.@.`Zh6H
 8001204 02400f20 5a60da6a 8243da62 1a6b3348  .@. Z`.j.C.b.k3H
 8001214 02401a63 5a6b8a43 00215a63 80229960  .@.cZk.C.!Zc.".`
 8001224 00910191 18685102 0143a022 80201960  .....hQ..C.". .`
 8001234 8002d101 02e0009a 8a4208d0 1a680240  .........B...h.@
 8001244 0192009a 01320092 019a002a f3d01e4b  .....2.....*...K
 8001254 80211868 8a020300 13401042 06d00120  .!.h.....@.B... 
 8001264 01900199 012905d0 02b07047 01930199  .....)....pG....
 8001274 0129f9d1 11221a4b 13481a60 41684160  .)...".K.H.`AhA`
 8001284 43681849 43604268 0a404260 88225103  Ch.IC`Bh.@B`."Q.
 8001294 80224368 19434160 03685104 19438023  ."Ch.CA`.hQ..C.#
 80012a4 01609904 02680a42 fcd00321 43688b43  .`...h.B...!Ch.C
 80012b4 43604268 01390a43 0c214260 02484368  C`Bh.9.C.!B`.HCh
 80012c4 0b40082b fbd1cfe7 00100240 0cb8ff08  .@.+.......@....
 80012d4 fffff6fe fffffbff ffffc0ff acfeffff  ................
 80012e4 00200240 ff7fc0ff f8b5ce46 47460221  . .@.......FGF.!
 80012f4 80b5864b 188a9a89 94b20142 00d1bce0  ...K.......B....
 8001304 214200d1 b9e00325 814f6e42 1e823888  !B.....%.OnB..8.
 8001314 804c82b2 22805b6b 99b23980 25883888  .L..".[k..9.%.8.
 8001324 aeb28542 00d8ace0 3f887b4c 013fba1b  ...B....?.{L.?..
 8001334 df2793b2 23802088 7b009842 00d3abe0  .'..#. .{..B....
 8001344 0221764d 0126aa8a 0a43aa82 2380744b  .!vM.&...C..#.tK
 8001354 98461e70 27881621 b8b2fef7 b1fe85b2  .F.p'..!........
 8001364 1620704e 704f3580 704d2a78 0132d1b2  . pNpO5.pM*x.2..
 8001374 29702b78 6e494343 3b803288 6d4b90b2  )p+xnICC;.2.mK..
 8001384 0a788c46 5100c852 03210132 0a406146  .x.FQ..R.!.2.@aF
 8001394 0a705a88 19888000 89189a88 db888918  .pZ.............
 80013a4 ca189110 80b20029 03d089b2 fef788fe  .......)........
 80013b4 80b20428 00d879e0 20881621 42082280  ...(..y. ..!B.".
 80013c4 2488a0b2 fef77cfe 83b25b48 33800188  $.....|...[H3...
 80013d4 5a4c8ab2 4d4b2280 596b8ab2 02802388  ZL..MK".Yk....#.
 80013e4 01880088 9cb2001b 8b4202d9 544a9146  .........B..TJ.F
 80013f4 48443221 fef7eefe 524b84b2 1c802978  HD2!....RK....)x
 8001404 99460f29 00d17ae0 01230221 4e4c4348  .F.)..z..#.!NLCH
 8001414 2370828a 0a438282 fff730fa 00204b4b  #p...C....0.. KK
 8001424 4b491870 01230a78 53400b70 012a48d1  KI.p.#.xS@.p.*H.
 8001434 b6200021 82004748 00f0e8f8 21780029  . .!..GH....!x.)
 8001444 59d00021 21700124 29703980 424f3688  Y..!!p.$)p9.BO6.
 8001454 3888013e a0433880 0120b5b2 79626b00  8..>.C8.. ..ybk.
 8001464 69049ab2 4e0cfa62 7e63bd8a 0543acb2  i...N..b~c...C..
 8001474 bc823b88 03439ab2 3a80c0bc b946b046  ..;..C..:....F.F
 8001484 f8bd3988 df27244c 8d1baeb2 26802088  ..9..'$L....&. .
 8001494 7b009842 00d253e7 02210020 1f4a204e  {..B..S..!. .J N
 80014a4 958ab046 8d439582 307053e7 34882a4a  ...F.C..0pS.4.*J
 80014b4 013ca6b2 75007304 afb2590c d7625163  .<..u.s...Y..bQc
 80014c4 dbe7b620 00218200 244800f0 9ff82178  ... .!..$H....!x
 80014d4 0029b6d1 42461f48 13781a00 2049531e  .)..BF.H.x.. IS.
 80014e4 9a410160 49461f4b 13438380 0a88c280  .A.`IF.K.C......
 80014f4 fef7d0ff a5e74246 18481378 ede70224  ......BF.H.x...$
 8001504 0648828a a2438282 0f4c85e7 00480140  .H...C...L...H.@
 8001514 4e000020 50000020 54040020 00040048  N.. P.. T.. ...H
 8001524 57040020 120a0020 4c000020 0d0a0020  W.. ... L.. ... 
 8001534 58040020 140a0020 1e0a0020 200a0020  X.. ... ...  .. 
 8001544 ffff0000 0e0a0020 100a0020 56040020  ....... ... V.. 
 8001554 0c0a0020 5c040020 00440140 34070020  ... \.. .D.@4.. 
 8001564 aabbccdd 0080ffff 022110b5 1c4b188a  .........!...K..
 8001574 9a8992b2 01420ed0 11420cd0 0320194a  .....B...B... .J
 8001584 40421082 b3201a8a 8a431a82 164b4200  @B... ...C...KB.
 8001594 19889142 00d910bd 00211448 01701a88  ...B.....!.H.p..
 80015a4 01310132 90b21880 1a880132 90b21880  .1.2.......2....
 80015b4 0f4b1a78 4a401a70 1978cb07 08d50d48  .K.xJ@.p.x.....H
 80015c4 0d4b0e49 0e4a0360 0a60fff7 1bf9e2e7  .K.I.J.`.`......
 80015d4 08480c4b 09490c4a 03600a60 f5e7c046  .H.K.I.J.`.`...F
 80015e4 00440140 00480140 4c000020 56040020  .D.@.H.@L.. V.. 
 80015f4 1c0a0020 28000020 54000020 2c000020  ... (.. T.. ,.. 
 8001604 54020020 54010020 54030020 03008218  T.. T.. T.. ....
 8001614 934200d1 70471970 0133f9e7 f8b5c046  .B..pG.p.3.....F
 8001624 f8bc08bc 9e467047 f8b5c046 f8bc08bc  .....FpG...F....
 8001634 9e467047                             .FpG            
Contents of section .init_array:
 8001638 25040008                             %...            
Contents of section .fini_array:
 800163c f9030008                             ....            
Contents of section .data:
 20000000 00000000 00000000 01020304 06070809  ................
 20000010 08000000 00000000 01020304 01020304  ................
 20000020 06070809 006cdc02 54000020 54020020  .....l..T.. T.. 
Contents of section .ARM.attributes:
 0000 41290000 00616561 62690001 1f000000  A)...aeabi......
 0010 0536532d 4d00060c 074d0901 12041401  .6S-M....M......
 0020 15011703 18011a01 1e02               ..........      
Contents of section .comment:
 0000 4743433a 2028626c 65656469 6e672d65  GCC: (bleeding-e
 0010 6467652d 746f6f6c 63686169 6e292039  dge-toolchain) 9
 0020 2e332e30 00                          .3.0.           
Contents of section .debug_info:
 0000 4a0e0000 04000000 00000401 27040000  J...........'...
 0010 0c870100 008e0600 00000000 00000000  ................
 0020 00000000 00020405 696e7400 03360000  ........int..6..
 0030 0002d117 38000000 04040799 00000005  ....8...........
 0040 8c030000 02410118 38000000 0408051c  .....A..8.......
 0050 01000004 0804cf03 00000520 04000002  ........... ....
 0060 5e011738 00000004 0106e304 00000401  ^..8............
 0070 08e10400 00040205 f5040000 0402073f  ...............?
 0080 03000004 04052101 00000404 07940000  ......!.........
 0090 00040807 8f000000 03190400 00032e0e  ................
 00a0 83000000 03f40500 0003740e 83000000  ..........t.....
 00b0 060403a5 03d20000 00077303 000003a7  ..........s.....
 00c0 0c5a0000 0007ec02 000003a8 13d20000  .Z..............
 00d0 0000086e 000000e2 00000009 38000000  ...n........8...
 00e0 03000a08 03a20906 0100000b ce050000  ................
 00f0 03a40725 00000000 0bdd0500 0003a905  ...%............
 0100 b0000000 04000317 05000003 aa03e200  ................
 0110 00000c04 03790600 00041619 8a000000  .....y..........
 0120 03840300 00052219 2c010000 0d043201  ......".,.....2.
 0130 00000ed6 05000003 85020000 04231b20  .............#. 
 0140 0100000f 96020000 18043408 9d010000  ..........4.....
 0150 0b430500 00043613 9d010000 00105f6b  .C....6......._k
 0160 00043707 25000000 040bae05 00000437  ..7.%..........7
 0170 0b250000 00080b39 03000004 37142500  .%.....9....7.%.
 0180 00000c0b 38070000 04371b25 00000010  ....8....7.%....
 0190 105f7800 04380ba3 01000014 000d0443  ._x..8.........C
 01a0 01000008 14010000 b3010000 09380000  .............8..
 01b0 0000000f c3020000 24043c08 36020000  ........$.<.6...
 01c0 0bfe0000 00043e09 25000000 000b1306  ......>.%.......
 01d0 0000043f 09250000 00040b36 01000004  ...?.%.....6....
 01e0 40092500 0000080b c6070000 04410925  @.%..........A.%
 01f0 0000000c 0be20300 00044209 25000000  ..........B.%...
 0200 100ba303 00000443 09250000 00140b3d  .......C.%.....=
 0210 07000004 44092500 0000180b ff040000  ....D.%.........
 0220 04450925 0000001c 0b770700 00044609  .E.%.....w....F.
 0230 25000000 20001145 01000008 01044f08  %... ..E......O.
 0240 7b020000 0b410200 0004500a 7b020000  {....A....P.{...
 0250 000b0000 00000451 097b0200 0080124c  .......Q.{.....L
 0260 06000004 530a1401 00000001 121e0000  ....S...........
 0270 0004560a 14010000 04010008 12010000  ..V.............
 0280 8b020000 09380000 001f000f 31060000  .....8......1...
 0290 8c045a08 cd020000 0b430500 00045b12  ..Z......C....[.
 02a0 cd020000 000b6d05 0000045c 06250000  ......m....\.%..
 02b0 00040b50 02000004 5d09d302 0000080b  ...P....].......
 02c0 c8020000 045e20ea 02000088 000d048b  .....^ .........
 02d0 02000008 e3020000 e3020000 09380000  .............8..
 02e0 001f000d 04e90200 00130d04 36020000  ............6...
 02f0 0f090500 0008047a 08180300 000b3001  .......z......0.
 0300 0000047b 11180300 00000b30 00000004  ...{.......0....
 0310 7c062500 00000400 0d046e00 00000f22  |.%.......n...."
 0320 05000068 04ba0861 04000010 5f700004  ...h...a...._p..
 0330 bb121803 00000010 5f720004 bc072500  ........_r....%.
 0340 00000410 5f770004 bd072500 0000080b  ...._w....%.....
 0350 80010000 04be0975 0000000c 0b1b0300  .......u........
 0360 0004bf09 75000000 0e105f62 660004c0  ....u....._bf...
 0370 11f00200 00100ba6 00000004 c1072500  ..............%.
 0380 0000180b 63000000 04c412a4 0500001c  ....c...........
 0390 0b530100 0004c80a 12010000 200bb302  .S.......... ...
 03a0 000004ca 1ddf0500 00240b9c 03000004  .........$......
 03b0 cc1d0906 0000280b e5050000 04cf0d2d  ......(........-
 03c0 0600002c 0b910700 0004d009 47060000  ...,........G...
 03d0 30105f75 620004d3 11f00200 0034105f  0._ub........4._
 03e0 75700004 d4121803 00003c10 5f757200  up........<._ur.
 03f0 04d50725 00000040 0b2a0100 0004d811  ...%...@.*......
 0400 4d060000 440b7107 000004d9 115d0600  M...D.q......]..
 0410 0047105f 6c620004 dc11f002 0000480b  .G._lb........H.
 0420 e5010000 04df0725 00000050 0b1a0200  .......%...P....
 0430 0004e00a 98000000 540bd705 000004e7  ........T.......
 0440 0c370100 00580b35 05000004 e90e0601  .7...X.5........
 0450 00005c0b 94030000 04ea0925 00000064  ..\........%...d
 0460 00145a06 00006004 790108a4 05000015  ..Z...`.y.......
 0470 0c060000 047d0107 25000000 0015de01  .....}..%.......
 0480 00000482 010bb906 00000415 05030000  ................
 0490 04820114 b9060000 08158e02 00000482  ................
 04a0 011eb906 00000c15 68050000 04840108  ........h.......
 04b0 25000000 10154500 00000486 0109cd05  %.....E.........
 04c0 00001415 0e040000 04880107 25000000  ............%...
 04d0 18158305 0000048a 01072500 00001c15  ..........%.....
 04e0 16000000 048b0116 a3080000 20165f6d  ............ ._m
 04f0 7000048d 0112a908 00002415 79050000  p.........$.y...
 0500 048f010a ba080000 28159e02 00000491  ........(.......
 0510 01072500 00002c15 13030000 04940107  ..%...,.........
 0520 25000000 30151202 00000495 0109cd05  %...0...........
 0530 00003415 a4070000 04970113 c0080000  ..4.............
 0540 38158207 00000498 0110c608 00003c15  8.............<.
 0550 5e030000 04990109 cd050000 40155707  ^...........@.W.
 0560 0000049c 010cd708 00004415 5b010000  ..........D.[...
 0570 04a40110 7a060000 48154001 000004a5  ....z...H.@.....
 0580 010bb906 00005415 bb030000 04a60117  ......T.........
 0590 e3080000 58155203 000004a7 0109cd05  ....X.R.........
 05a0 00005c00 0d046104 000017a4 05000018  ..\...a.........
 05b0 25000000 cd050000 19a40500 00191201  %...............
 05c0 000019cd 05000019 25000000 000d04d3  ........%.......
 05d0 05000004 0108ea04 000017d3 0500000d  ................
 05e0 04af0500 00182500 00000306 000019a4  ......%.........
 05f0 05000019 12010000 19030600 00192500  ..............%.
 0600 0000000d 04da0500 000d04e5 05000018  ................
 0610 a4000000 2d060000 19a40500 00191201  ....-...........
 0620 000019a4 00000019 25000000 000d040f  ........%.......
 0630 06000018 25000000 47060000 19a40500  ....%...G.......
 0640 00191201 0000000d 04330600 00086e00  .........3....n.
 0650 00005d06 00000938 00000002 00086e00  ..]....8......n.
 0660 00006d06 00000938 00000000 00051005  ..m....8........
 0670 00000424 011a1e03 00001447 0700000c  ...$.......G....
 0680 04280108 b3060000 15430500 00042a01  .(.......C....*.
 0690 11b30600 0000152a 03000004 2b010725  .......*....+..%
 06a0 00000004 15ef0400 00042c01 0bb90600  ..........,.....
 06b0 0008000d 047a0600 000d046d 06000014  .....z.....m....
 06c0 3d000000 18044401 08060700 0015b605  =.....D.........
 06d0 00000445 01120607 00000015 39060000  ...E........9...
 06e0 04460112 06070000 06157406 00000447  .F........t....G
 06f0 01127c00 00000c15 3e050000 044a0124  ..|.....>....J.$
 0700 91000000 1000087c 00000016 07000009  .......|........
 0710 38000000 02001479 01000010 045d0108  8......y.....]..
 0720 5d070000 156b0300 00046001 139d0100  ]....k....`.....
 0730 000015b9 02000004 61010725 00000004  ........a..%....
 0740 15b70700 00046201 139d0100 000815a7  ......b.........
 0750 04000004 6301145d 0700000c 000d049d  ....c..]........
 0760 01000014 55060000 50046701 080c0800  ....U...P.g.....
 0770 00153f06 0000046a 0109cd05 00000015  ..?....j........
 0780 5b050000 046b010e 06010000 0415ba04  [....k..........
 0790 0000046c 010e0601 00000c15 a9070000  ...l............
 07a0 046d010e 06010000 14154d07 0000046e  .m........M....n
 07b0 01080c08 00001c15 81060000 046f0107  .............o..
 07c0 25000000 24153302 00000470 010e0601  %...$.3....p....
 07d0 00002815 d0000000 0471010e 06010000  ..(......q......
 07e0 30152202 00000472 010e0601 00003815  0."....r......8.
 07f0 6f000000 0473010e 06010000 40157e00  o....s......@.~.
 0800 00000474 010e0601 00004800 08d30500  ...t......H.....
 0810 001c0800 00093800 00000700 11b80000  ......8.........
 0820 006c0106 b208a308 00000b03 07000006  .l..............
 0830 b40b6b0d 0000000b 72050000 06b50ba5  ..k.....r.......
 0840 0d0000e0 0b490200 0006b70b d40d0000  .....I..........
 0850 e40baf00 000006b9 0a250000 00e80b26  .........%.....&
 0860 00000006 ba0bcd05 0000ec0b 69000000  ............i...
 0870 06bb1245 090000f0 12790300 0006bd0b  ...E.....y......
 0880 da0d0000 280112c1 03000006 be0bea0d  ....(...........
 0890 00002a01 12020200 0006bf0b ea0d0000  ..*.............
 08a0 4a01000d 041c0800 000d0416 0700001a  J...............
 08b0 ba080000 19a40500 00000d04 af080000  ................
 08c0 0d04bf06 00000d04 b3010000 1ad70800  ................
 08d0 00192500 0000000d 04dd0800 000d04cc  ..%.............
 08e0 0800000d 04630700 00086d06 0000f908  .....c....m.....
 08f0 00000938 00000002 001b4001 000004ab  ...8......@.....
 0900 010fe908 00001b25 07000004 330317a4  .......%....3...
 0910 0500001b 1e070000 0434031d aa050000  .........4......
 0920 1b2a0600 00044603 18cd0200 001cf103  .*....F.........
 0930 00000767 0ecd0500 00031805 00000856  ...g...........V
 0940 14060100 000f6900 00003809 2a088b0a  ......i...8.*...
 0950 00000bf7 02000009 2c09cd05 0000000b  ........,.......
 0960 a0050000 092d09cd 05000004 0b7c0200  .....-.......|..
 0970 00092e09 cd050000 080bee00 0000092f  .............../
 0980 09cd0500 000c0bfc 05000009 3009cd05  ............0...
 0990 0000100b f3020000 093109cd 05000014  .........1......
 09a0 0b9c0500 00093209 cd050000 180b7802  ......2.......x.
 09b0 00000933 09cd0500 001c0bad 03000009  ...3............
 09c0 3409cd05 0000200b 31030000 093509cd  4..... .1....5..
 09d0 05000024 0b610700 00093608 d3050000  ...$.a....6.....
 09e0 280b6507 00000937 08d30500 00290bde  (.e....7.....)..
 09f0 02000009 3808d305 00002a0b ff030000  ....8.....*.....
 0a00 093908d3 0500002b 0bc00500 00093a08  .9.....+......:.
 0a10 d3050000 2c0b5400 0000093b 08d30500  ....,.T....;....
 0a20 002d0b6c 02000009 3c08d305 00002e0b  .-.l....<.......
 0a30 12070000 093d08d3 0500002f 0bbc0500  .....=...../....
 0a40 00093e08 d3050000 300b5000 0000093f  ..>.....0.P....?
 0a50 08d30500 00310b0e 07000009 4008d305  .....1......@...
 0a60 0000320b da020000 094108d3 05000033  ..2......A.....3
 0a70 0bfb0300 00094208 d3050000 340b6802  ......B.....4.h.
 0a80 00000943 08d30500 0035000f 2a050000  ...C.....5..*...
 0a90 08063908 b30a0000 0b0a0200 00063b0f  ..9...........;.
 0aa0 03060000 000b7903 0000063c 0f030600  ......y....<....
 0ab0 00040017 8b0a0000 1c630100 00064220  .........c....B 
 0ac0 b30a0000 0ff40100 003c0644 08950b00  .........<.D....
 0ad0 000bee00 00000646 0f030600 00000bfc  .......F........
 0ae0 05000006 470f0306 0000040b f3020000  ....G...........
 0af0 06480f03 06000008 0b9c0500 0006490f  .H............I.
 0b00 03060000 0c0b7802 0000064a 0f030600  ......x....J....
 0b10 00100bad 03000006 4b0f0306 0000140b  ........K.......
 0b20 31030000 064c0f03 06000018 0b610700  1....L.......a..
 0b30 00064d0f 03060000 1c0b6507 0000064e  ..M.......e....N
 0b40 0f030600 00200bde 02000006 4f0f0306  ..... ......O...
 0b50 0000240b ff030000 06500f03 06000028  ..$......P.....(
 0b60 0bc00500 0006510f 03060000 2c0b5400  ......Q.....,.T.
 0b70 00000652 0f030600 00300b6c 02000006  ...R.....0.l....
 0b80 530f0306 0000340b 12070000 06540f03  S.....4......T..
 0b90 06000038 0017c40a 00001c61 06000006  ...8.......a....
 0ba0 6523950b 00000fc3 0000000c 066708db  e#...........g..
 0bb0 0b00000b f7020000 06690f03 06000000  .........i......
 0bc0 0ba00500 00066a0f 03060000 040b7c02  ......j.......|.
 0bd0 0000066b 0f030600 00080017 a60b0000  ...k............
 0be0 1c0c0000 00067222 db0b0000 0f070100  ......r"........
 0bf0 00fc0674 08d70c00 00106d6f 6e000676  ...t......mon..v
 0c00 0fdc0c00 00000bc0 07000006 770fdc0c  ............w...
 0c10 0000300b 42070000 06780fec 0c000060  ..0.B....x.....`
 0c20 0b530500 0006790f ec0c0000 7c0bad02  .S....y.....|...
 0c30 0000067a 0f030600 00980beb 03000006  ...z............
 0c40 7b0f0306 00009c0b 0d030000 067c0f03  {............|..
 0c50 060000a0 0b730100 00067d0f fc0c0000  .....s....}.....
 0c60 a40b2103 0000067e 0f030600 00ac0bbc  ..!....~........
 0c70 07000006 7f0fdc0c 0000b00b b1040000  ................
 0c80 06800f03 060000e0 0beb0500 0006810f  ................
 0c90 03060000 e4106572 61000682 0f030600  ......era.......
 0ca0 00e80bd7 04000006 830f0306 0000ec0b  ................
 0cb0 98070000 06840f03 060000f0 0b490500  .............I..
 0cc0 0006850f 03060000 f40b1101 00000686  ................
 0cd0 0f030600 00f80017 ec0b0000 08030600  ................
 0ce0 00ec0c00 00093800 00000b00 08030600  ......8.........
 0cf0 00fc0c00 00093800 00000600 08030600  ......8.........
 0d00 000c0d00 00093800 00000100 1cdf0000  ......8.........
 0d10 00069a1f d70c0000 0f1c0600 0010069c  ................
 0d20 085a0d00 000bcf04 0000069e 0f030600  .Z..............
 0d30 00000bdb 03000006 9f0f0306 0000040b  ................
 0d40 c8040000 06a00f03 06000008 0bee0100  ................
 0d50 0006a10f 03060000 0c001718 0d00001c  ................
 0d60 55020000 06aa235a 0d000008 d3050000  U.....#Z........
 0d70 810d0000 09380000 00060938 0000001f  .....8.....8....
 0d80 00182500 00009f0d 000019a4 05000019  ..%.............
 0d90 cd050000 193f0000 00199f0d 0000000d  .....?..........
 0da0 04390900 000d0481 0d000018 25000000  .9..........%...
 0db0 ce0d0000 19a40500 0019ce0d 00001903  ................
 0dc0 06000019 2c000000 199f0d00 00000d04  ....,...........
 0dd0 3f000000 0d04ab0d 000008d3 050000ea  ?...............
 0de0 0d000009 38000000 010008d3 050000fa  ....8...........
 0df0 0d000009 38000000 1f001d31 0700000a  ....8......1....
 0e00 21091201 00001016 00081000 0000019c  !...............
 0e10 1e6d0001 260f1201 00000150 1e630001  .m..&......P.c..
 0e20 27062500 00000151 1f6e0001 28092c00  '.%....Q.n..(.,.
 0e30 00000800 00000000 00002073 00012a09  .......... s..*.
 0e40 cd050000 60000000 58000000 00002200  ....`...X.....".
 0e50 00000200 cc010000 04016502 0000c400  ..........e.....
 0e60 0008d801 0008d007 00002608 00008d08  ..........&.....
 0e70 00000180 22000000 0200e001 00000401  ...."...........
 0e80 f7020000 d8010008 ac030008 d0070000  ................
 0e90 26080000 8d080000 01802200 00000200  &.........".....
 0ea0 f4010000 04019003 0000ac03 0008ae03  ................
 0eb0 0008d007 00002608 00008d08 00000180  ......&.........
Contents of section .debug_abbrev:
 0000 01110125 0e130b03 0e1b0e55 17110110  ...%.......U....
 0010 17000002 24000b0b 3e0b0308 00000316  ....$...>.......
 0020 00030e3a 0b3b0b39 0b491300 00042400  ...:.;.9.I....$.
 0030 0b0b3e0b 030e0000 05160003 0e3a0b3b  ..>..........:.;
 0040 05390b49 13000006 17010b0b 3a0b3b0b  .9.I........:.;.
 0050 390b0113 0000070d 00030e3a 0b3b0b39  9..........:.;.9
 0060 0b491300 00080101 49130113 00000921  .I......I......!
 0070 0049132f 0b00000a 13010b0b 3a0b3b0b  .I./........:.;.
 0080 390b0113 00000b0d 00030e3a 0b3b0b39  9..........:.;.9
 0090 0b491338 0b00000c 0f000b0b 00000d0f  .I.8............
 00a0 000b0b49 1300000e 1300030e 3c190000  ...I........<...
 00b0 0f130103 0e0b0b3a 0b3b0b39 0b011300  .......:.;.9....
 00c0 00100d00 03083a0b 3b0b390b 4913380b  ......:.;.9.I.8.
 00d0 00001113 01030e0b 053a0b3b 0b390b01  .........:.;.9..
 00e0 13000012 0d00030e 3a0b3b0b 390b4913  ........:.;.9.I.
 00f0 38050000 13150027 19000014 1301030e  8......'........
 0100 0b0b3a0b 3b05390b 01130000 150d0003  ..:.;.9.........
 0110 0e3a0b3b 05390b49 13380b00 00160d00  .:.;.9.I.8......
 0120 03083a0b 3b05390b 4913380b 00001726  ..:.;.9.I.8....&
 0130 00491300 00181501 27194913 01130000  .I......'.I.....
 0140 19050049 1300001a 15012719 01130000  ...I......'.....
 0150 1b340003 0e3a0b3b 05390b49 133f193c  .4...:.;.9.I.?.<
 0160 1900001c 3400030e 3a0b3b0b 390b4913  ....4...:.;.9.I.
 0170 3f193c19 00001d2e 013f1903 0e3a0b3b  ?.<......?...:.;
 0180 0b390b27 19491311 01120640 18974219  .9.'.I.....@..B.
 0190 00001e05 0003083a 0b3b0b39 0b491302  .......:.;.9.I..
 01a0 1800001f 05000308 3a0b3b0b 390b4913  ........:.;.9.I.
 01b0 0217b742 17000020 34000308 3a0b3b0b  ...B... 4...:.;.
 01c0 390b4913 0217b742 17000000 01110010  9.I....B........
 01d0 06110112 01030e1b 0e250e13 05000000  .........%......
 01e0 01110010 06110112 01030e1b 0e250e13  .............%..
 01f0 05000000 01110010 06110112 01030e1b  ................
 0200 0e250e13 05000000                    .%......        
Contents of section .debug_loc:
 0000 00000001 01000000 10160008 14160008  ................
 0010 01005214 16000814 1600080a 00700073  ..R..........p.s
 0020 001cf301 52229f14 1600081e 1600080b  ....R"..........
 0030 00730020 f3015222 7000229f 1e160008  .s. ..R"p.".....
 0040 20160008 0a007000 73001cf3 0152229f   .....p.s....R".
 0050 00000000 00000000 02000001 01000000  ................
 0060 10160008 14160008 01005014 1600081a  ..........P.....
 0070 16000801 00531a16 00081e16 00080300  .....S..........
 0080 73019f1e 16000820 16000801 00530000  s...... .....S..
 0090 00000000 0000                        ......          
Contents of section .debug_aranges:
 0000 1c000000 02000000 00000400 00000000  ................
 0010 10160008 10000000 00000000 00000000  ................
 0020 1c000000 02004e0e 00000400 00000000  ......N.........
 0030 c4000008 14010000 00000000 00000000  ................
 0040 1c000000 0200740e 00000400 00000000  ......t.........
 0050 d8010008 d4010000 00000000 00000000  ................
 0060 1c000000 02009a0e 00000400 00000000  ................
 0070 ac030008 02000000 00000000 00000000  ................
Contents of section .debug_ranges:
 0000 10160008 20160008 00000000 00000000  .... ...........
Contents of section .debug_line:
 0000 61020000 03003302 00000201 fb0e0d00  a.....3.........
 0010 01010101 00000001 0000012f 686f6d65  .........../home
 0020 2f667265 64646965 2f626c65 6564696e  /freddie/bleedin
 0030 672d6564 67652d74 6f6f6c63 6861696e  g-edge-toolchain
 0040 2f736f75 72636573 2f6e6577 6c69622d  /sources/newlib-
 0050 332e332e 302f6e65 776c6962 2f6c6962  3.3.0/newlib/lib
 0060 632f7374 72696e67 002f686f 6d652f66  c/string./home/f
 0070 72656464 69652f62 6c656564 696e672d  reddie/bleeding-
 0080 65646765 2d746f6f 6c636861 696e2f69  edge-toolchain/i
 0090 6e737461 6c6c4e61 74697665 2f6c6962  nstallNative/lib
 00a0 2f676363 2f61726d 2d6e6f6e 652d6561  /gcc/arm-none-ea
 00b0 62692f39 2e332e30 2f696e63 6c756465  bi/9.3.0/include
 00c0 002f686f 6d652f66 72656464 69652f62  ./home/freddie/b
 00d0 6c656564 696e672d 65646765 2d746f6f  leeding-edge-too
 00e0 6c636861 696e2f73 6f757263 65732f6e  lchain/sources/n
 00f0 65776c69 622d332e 332e302f 6e65776c  ewlib-3.3.0/newl
 0100 69622f6c 6962632f 696e636c 7564652f  ib/libc/include/
 0110 73797300 2f686f6d 652f6672 65646469  sys./home/freddi
 0120 652f626c 65656469 6e672d65 6467652d  e/bleeding-edge-
 0130 746f6f6c 63686169 6e2f736f 75726365  toolchain/source
 0140 732f6e65 776c6962 2d332e33 2e302f6e  s/newlib-3.3.0/n
 0150 65776c69 622f6c69 62632f73 7472696e  ewlib/libc/strin
 0160 672f2e2e 2f637479 70652f2e 2e2f6c6f  g/../ctype/../lo
 0170 63616c65 002f686f 6d652f66 72656464  cale./home/fredd
 0180 69652f62 6c656564 696e672d 65646765  ie/bleeding-edge
 0190 2d746f6f 6c636861 696e2f73 6f757263  -toolchain/sourc
 01a0 65732f6e 65776c69 622d332e 332e302f  es/newlib-3.3.0/
 01b0 6e65776c 69622f6c 6962632f 696e636c  newlib/libc/incl
 01c0 75646500 006d656d 7365742e 63000100  ude..memset.c...
 01d0 00737464 6465662e 68000200 005f7479  .stddef.h...._ty
 01e0 7065732e 68000300 00726565 6e742e68  pes.h....reent.h
 01f0 00030000 6c6f636b 2e680003 00007365  ....lock.h....se
 0200 746c6f63 616c652e 68000400 00737464  tlocale.h....std
 0210 6c69622e 68000500 00776368 61722e68  lib.h....wchar.h
 0220 00050000 6c6f6361 6c652e68 00050000  ....locale.h....
 0230 73747269 6e672e68 00050000 00050100  string.h........
 0240 05021016 00080328 01050313 03320105  .......(.....2..
 0250 092e0601 05013205 05061d05 0c06012e  ......2.........
 0260 02010001 018e0000 0003006c 00000002  ...........l....
 0270 01fb0e0d 00010101 01000000 01000001  ................
 0280 2f686f6d 652f6672 65646469 652f626c  /home/freddie/bl
 0290 65656469 6e672d65 6467652d 746f6f6c  eeding-edge-tool
 02a0 63686169 6e2f736f 75726365 732f6763  chain/sources/gc
 02b0 632d392e 332e302f 6c696267 63632f63  c-9.3.0/libgcc/c
 02c0 6f6e6669 672f6172 6d00006c 69623166  onfig/arm..lib1f
 02d0 756e6373 2e530001 00000000 0502c400  uncs.S..........
 02e0 000803b3 08010331 02800101 6a21030c  .......1....j!..
 02f0 20210201 00010195 00000003 006c0000   !...........l..
 0300 000201fb 0e0d0001 01010100 00000100  ................
 0310 00012f68 6f6d652f 66726564 6469652f  ../home/freddie/
 0320 626c6565 64696e67 2d656467 652d746f  bleeding-edge-to
 0330 6f6c6368 61696e2f 736f7572 6365732f  olchain/sources/
 0340 6763632d 392e332e 302f6c69 62676363  gcc-9.3.0/libgcc
 0350 2f636f6e 6669672f 61726d00 006c6962  /config/arm..lib
 0360 3166756e 63732e53 00010000 00000502  1funcs.S........
 0370 d8010008 03f00901 21212302 80011503  ........!!#.....
 0380 c000025e 015c2103 0c202102 01000101  ...^.\!.. !.....
 0390 82000000 03006c00 00000201 fb0e0d00  ......l.........
 03a0 01010101 00000001 0000012f 686f6d65  .........../home
 03b0 2f667265 64646965 2f626c65 6564696e  /freddie/bleedin
 03c0 672d6564 67652d74 6f6f6c63 6861696e  g-edge-toolchain
 03d0 2f736f75 72636573 2f676363 2d392e33  /sources/gcc-9.3
 03e0 2e302f6c 69626763 632f636f 6e666967  .0/libgcc/config
 03f0 2f61726d 00006c69 62316675 6e63732e  /arm..lib1funcs.
 0400 53000100 00000005 02ac0300 0803b40b  S...............
 0410 01020100 0101                        ......          
Contents of section .debug_str:
 0000 5f64736f 5f68616e 646c6500 5f435f6e  _dso_handle._C_n
 0010 756d6572 69635f6c 6f63616c 65005f69  umeric_locale._i
 0020 735f6378 61006374 7970655f 70747200  s_cxa.ctype_ptr.
 0030 5f73697a 65007369 7a655f74 005f7261  _size.size_t._ra
 0040 6e643438 005f656d 65726765 6e637900  nd48._emergency.
 0050 696e745f 6e5f7365 705f6279 5f737061  int_n_sep_by_spa
 0060 6365005f 64617461 006c636f 6e76005f  ce._data.lconv._
 0070 77637274 6f6d625f 73746174 65005f77  wcrtomb_state._w
 0080 63737274 6f6d6273 5f737461 7465006c  csrtombs_state.l
 0090 6f6e6720 6c6f6e67 20756e73 69676e65  ong long unsigne
 00a0 6420696e 74005f6c 62667369 7a650063  d int._lbfsize.c
 00b0 6a6b5f6c 616e6700 5f5f6c6f 63616c65  jk_lang.__locale
 00c0 5f74006c 635f6e75 6d657269 635f5400  _t.lc_numeric_T.
 00d0 5f6d6272 746f7763 5f737461 7465005f  _mbrtowc_state._
 00e0 435f7469 6d655f6c 6f63616c 6500696e  C_time_locale.in
 00f0 745f6375 72725f73 796d626f 6c005f5f  t_curr_symbol.__
 0100 746d5f73 6563006c 635f7469 6d655f54  tm_sec.lc_time_T
 0110 00616c74 5f646967 69747300 6c6f6e67  .alt_digits.long
 0120 206c6f6e 6720696e 74005f75 62756600   long int._ubuf.
 0130 5f626173 65005f5f 746d5f68 6f757200  _base.__tm_hour.
 0140 5f5f7366 005f6f6e 5f657869 745f6172  __sf._on_exit_ar
 0150 6773005f 636f6f6b 6965005f 5f73676c  gs._cookie.__sgl
 0160 7565005f 435f6374 7970655f 6c6f6361  ue._C_ctype_loca
 0170 6c650061 6d5f706d 005f6d70 72656300  le.am_pm._mprec.
 0180 5f666c61 6773002f 686f6d65 2f667265  _flags./home/fre
 0190 64646965 2f626c65 6564696e 672d6564  ddie/bleeding-ed
 01a0 67652d74 6f6f6c63 6861696e 2f736f75  ge-toolchain/sou
 01b0 72636573 2f6e6577 6c69622d 332e332e  rces/newlib-3.3.
 01c0 302f6e65 776c6962 2f6c6962 632f7374  0/newlib/libc/st
 01d0 72696e67 2f6d656d 7365742e 63005f73  ring/memset.c._s
 01e0 7464696e 005f626c 6b73697a 65006e6f  tdin._blksize.no
 01f0 73747200 6c635f6d 6f6e6574 6172795f  str.lc_monetary_
 0200 54006d65 73736167 655f636f 64657365  T.message_codese
 0210 74005f63 76746275 66005f6f 66667365  t._cvtbuf._offse
 0220 74005f6d 62737274 6f776373 5f737461  t._mbsrtowcs_sta
 0230 7465005f 6d62726c 656e5f73 74617465  te._mbrlen_state
 0240 005f666e 61726773 006d6274 6f776300  ._fnargs.mbtowc.
 0250 5f666e73 005f435f 6d657373 61676573  _fns._C_messages
 0260 5f6c6f63 616c6500 696e745f 705f7369  _locale.int_p_si
 0270 676e5f70 6f736e00 6d6f6e5f 67726f75  gn_posn.mon_grou
 0280 70696e67 005f666c 6f636b5f 74005f73  ping._flock_t._s
 0290 74646572 72005f42 6967696e 74005f67  tderr._Bigint._g
 02a0 616d6d61 5f736967 6e67616d 00585f66  amma_signgam.X_f
 02b0 6d74005f 72656164 005f7265 73756c74  mt._read._result
 02c0 5f6b005f 5f746d00 5f6f6e5f 65786974  _k.__tm._on_exit
 02d0 5f617267 735f7074 7200696e 745f705f  _args_ptr.int_p_
 02e0 63735f70 72656365 64657300 5f5f7763  cs_precedes.__wc
 02f0 6862006d 6f6e5f64 6563696d 616c5f70  hb.mon_decimal_p
 0300 6f696e74 005f7374 646f7574 00635f66  oint._stdout.c_f
 0310 6d74005f 6376746c 656e005f 66696c65  mt._cvtlen._file
 0320 00646174 655f666d 74005f6e 696f6273  .date_fmt._niobs
 0330 006e6567 61746976 655f7369 676e0073  .negative_sign.s
 0340 686f7274 20756e73 69676e65 6420696e  hort unsigned in
 0350 74005f73 69676e61 6c5f6275 66005f61  t._signal_buf._a
 0360 73637469 6d655f62 7566005f 72657375  sctime_buf._resu
 0370 6c74005f 5f776368 006d625f 6375725f  lt.__wch.mb_cur_
 0380 6d617800 5f4c4f43 4b5f5400 77636861  max._LOCK_T.wcha
 0390 725f7400 5f666c61 67733200 5f777269  r_t._flags2._wri
 03a0 7465005f 5f746d5f 79656172 00706f73  te.__tm_year.pos
 03b0 69746976 655f7369 676e005f 6d697363  itive_sign._misc
 03c0 00637479 70655f63 6f646573 6574006c  .ctype_codeset.l
 03d0 6f6e6720 646f7562 6c65006e 6f657870  ong double.noexp
 03e0 72005f5f 746d5f6d 6f6e0078 5f666d74  r.__tm_mon.x_fmt
 03f0 00737562 6f707461 72670069 6e745f70  .suboptarg.int_p
 0400 5f736570 5f62795f 73706163 65005f5f  _sep_by_space.__
 0410 73646964 696e6974 005f6f66 665f7400  sdidinit._off_t.
 0420 77696e74 5f740047 4e552043 31372039  wint_t.GNU C17 9
 0430 2e332e30 202d6d66 6c6f6174 2d616269  .3.0 -mfloat-abi
 0440 3d736f66 74202d6d 7468756d 62202d6d  =soft -mthumb -m
 0450 666c6f61 742d6162 693d736f 6674202d  float-abi=soft -
 0460 6d617263 683d6172 6d763673 2d6d202d  march=armv6s-m -
 0470 67202d4f 73202d66 6e6f2d62 75696c74  g -Os -fno-built
 0480 696e202d 6666756e 6374696f 6e2d7365  in -ffunction-se
 0490 6374696f 6e73202d 66646174 612d7365  ctions -fdata-se
 04a0 6374696f 6e73005f 66726565 6c697374  ctions._freelist
 04b0 006d645f 6f726465 72005f77 63746f6d  .md_order._wctom
 04c0 625f7374 61746500 79657373 74720079  b_state.yesstr.y
 04d0 65736578 70720065 72615f64 5f666d74  esexpr.era_d_fmt
 04e0 00756e73 69676e65 64206368 6172005f  .unsigned char._
 04f0 696f6273 0073686f 72742069 6e74005f  iobs.short int._
 0500 5f746d5f 79646179 005f5f73 62756600  _tm_yday.__sbuf.
 0510 5f5f4649 4c45005f 6d627374 6174655f  __FILE._mbstate_
 0520 74005f5f 7346494c 45006c63 5f637479  t.__sFILE.lc_cty
 0530 70655f54 005f6d62 73746174 65005f72  pe_T._mbstate._r
 0540 616e645f 6e657874 00657261 5f745f66  and_next.era_t_f
 0550 6d740077 65656b64 6179005f 6d626c65  mt.weekday._mble
 0560 6e5f7374 61746500 5f696e63 005f696e  n_state._inc._in
 0570 64007763 746f6d62 005f5f63 6c65616e  d.wctomb.__clean
 0580 7570005f 756e7370 65636966 6965645f  up._unspecified_
 0590 6c6f6361 6c655f69 6e666f00 6d6f6e5f  locale_info.mon_
 05a0 74686f75 73616e64 735f7365 70005f6d  thousands_sep._m
 05b0 61787764 73005f73 65656400 696e745f  axwds._seed.int_
 05c0 6e5f6373 5f707265 63656465 73005f5f  n_cs_precedes.__
 05d0 636f756e 74005f5f 6c6f636b 005f5f76  count.__lock.__v
 05e0 616c7565 005f7365 656b0061 6d706d5f  alue._seek.ampm_
 05f0 666d7400 5f66706f 735f7400 63757272  fmt._fpos_t.curr
 0600 656e6379 5f73796d 626f6c00 5f657272  ency_symbol._err
 0610 6e6f005f 5f746d5f 6d696e00 6c635f6d  no.__tm_min.lc_m
 0620 65737361 6765735f 54005f67 6c6f6261  essages_T._globa
 0630 6c5f6174 65786974 005f6d75 6c74005f  l_atexit._mult._
 0640 73747274 6f6b5f6c 61737400 5f666e74  strtok_last._fnt
 0650 79706573 005f6d69 73635f72 65656e74  ypes._misc_reent
 0660 005f435f 6d6f6e65 74617279 5f6c6f63  ._C_monetary_loc
 0670 616c6500 5f616464 005f5f55 4c6f6e67  ale._add.__ULong
 0680 005f6765 74646174 655f6572 72002f68  ._getdate_err./h
 0690 6f6d652f 66726564 6469652f 626c6565  ome/freddie/blee
 06a0 64696e67 2d656467 652d746f 6f6c6368  ding-edge-toolch
 06b0 61696e2f 6275696c 644e6174 6976652f  ain/buildNative/
 06c0 6e65776c 69622d33 2e332e30 2d6e616e  newlib-3.3.0-nan
 06d0 6f2f6172 6d2d6e6f 6e652d65 6162692f  o/arm-none-eabi/
 06e0 7468756d 622f7636 2d6d2f6e 6f66702f  thumb/v6-m/nofp/
 06f0 6e65776c 69622f6c 6962632f 73747269  newlib/libc/stri
 0700 6e670063 61746567 6f726965 7300696e  ng.categories.in
 0710 745f6e5f 7369676e 5f706f73 6e005f67  t_n_sign_posn._g
 0720 6c6f6261 6c5f696d 70757265 5f707472  lobal_impure_ptr
 0730 006d656d 73657400 5f776473 005f5f74  .memset._wds.__t
 0740 6d5f7764 6179005f 676c7565 005f6c36  m_wday._glue._l6
 0750 34615f62 7566005f 7369675f 66756e63  4a_buf._sig_func
 0760 00696e74 5f667261 635f6469 67697473  .int_frac_digits
 0770 005f6e62 7566005f 5f746d5f 69736473  ._nbuf.__tm_isds
 0780 74005f6c 6f63616c 74696d65 5f627566  t._localtime_buf
 0790 005f636c 6f736500 6572615f 645f745f  ._close.era_d_t_
 07a0 666d7400 5f723438 005f6d62 746f7763  fmt._r48._mbtowc
 07b0 5f737461 7465005f 70357300 616c745f  _state._p5s.alt_
 07c0 6d6f6e74 68005f5f 746d5f6d 64617900  month.__tm_mday.
 07d0 2f686f6d 652f6672 65646469 652f626c  /home/freddie/bl
 07e0 65656469 6e672d65 6467652d 746f6f6c  eeding-edge-tool
 07f0 63686169 6e2f736f 75726365 732f6763  chain/sources/gc
 0800 632d392e 332e302f 6c696267 63632f63  c-9.3.0/libgcc/c
 0810 6f6e6669 672f6172 6d2f6c69 62316675  onfig/arm/lib1fu
 0820 6e63732e 53002f68 6f6d652f 66726564  ncs.S./home/fred
 0830 6469652f 626c6565 64696e67 2d656467  die/bleeding-edg
 0840 652d746f 6f6c6368 61696e2f 6275696c  e-toolchain/buil
 0850 644e6174 6976652f 6763632d 392e332e  dNative/gcc-9.3.
 0860 302d6669 6e616c2f 61726d2d 6e6f6e65  0-final/arm-none
 0870 2d656162 692f7468 756d622f 76362d6d  -eabi/thumb/v6-m
 0880 2f6e6f66 702f6c69 62676363 00474e55  /nofp/libgcc.GNU
 0890 20415320 322e3334 00                  AS 2.34.       
Contents of section .debug_frame:
 0000 0c000000 ffffffff 0100027c 0e0c0d00  ...........|....
 0010 0c000000 00000000 10160008 10000000  ................
 0020 0c000000 ffffffff 0100017c 0e0c0d00  ...........|....
 0030 0c000000 20000000 c5000008 0a010000  .... ...........
 0040 0c000000 ffffffff 0100017c 0e0c0d00  ...........|....
 0050 0c000000 40000000 d9010008 cc010000  ....@...........

Disassembly of section .text:

080000c4 <__udivsi3>:
 80000c4:	2200      	movs	r2, #0
 80000c6:	0843      	lsrs	r3, r0, #1
 80000c8:	428b      	cmp	r3, r1
 80000ca:	d374      	bcc.n	80001b6 <__udivsi3+0xf2>
 80000cc:	0903      	lsrs	r3, r0, #4
 80000ce:	428b      	cmp	r3, r1
 80000d0:	d35f      	bcc.n	8000192 <__udivsi3+0xce>
 80000d2:	0a03      	lsrs	r3, r0, #8
 80000d4:	428b      	cmp	r3, r1
 80000d6:	d344      	bcc.n	8000162 <__udivsi3+0x9e>
 80000d8:	0b03      	lsrs	r3, r0, #12
 80000da:	428b      	cmp	r3, r1
 80000dc:	d328      	bcc.n	8000130 <__udivsi3+0x6c>
 80000de:	0c03      	lsrs	r3, r0, #16
 80000e0:	428b      	cmp	r3, r1
 80000e2:	d30d      	bcc.n	8000100 <__udivsi3+0x3c>
 80000e4:	22ff      	movs	r2, #255	; 0xff
 80000e6:	0209      	lsls	r1, r1, #8
 80000e8:	ba12      	rev	r2, r2
 80000ea:	0c03      	lsrs	r3, r0, #16
 80000ec:	428b      	cmp	r3, r1
 80000ee:	d302      	bcc.n	80000f6 <__udivsi3+0x32>
 80000f0:	1212      	asrs	r2, r2, #8
 80000f2:	0209      	lsls	r1, r1, #8
 80000f4:	d065      	beq.n	80001c2 <__udivsi3+0xfe>
 80000f6:	0b03      	lsrs	r3, r0, #12
 80000f8:	428b      	cmp	r3, r1
 80000fa:	d319      	bcc.n	8000130 <__udivsi3+0x6c>
 80000fc:	e000      	b.n	8000100 <__udivsi3+0x3c>
 80000fe:	0a09      	lsrs	r1, r1, #8
 8000100:	0bc3      	lsrs	r3, r0, #15
 8000102:	428b      	cmp	r3, r1
 8000104:	d301      	bcc.n	800010a <__udivsi3+0x46>
 8000106:	03cb      	lsls	r3, r1, #15
 8000108:	1ac0      	subs	r0, r0, r3
 800010a:	4152      	adcs	r2, r2
 800010c:	0b83      	lsrs	r3, r0, #14
 800010e:	428b      	cmp	r3, r1
 8000110:	d301      	bcc.n	8000116 <__udivsi3+0x52>
 8000112:	038b      	lsls	r3, r1, #14
 8000114:	1ac0      	subs	r0, r0, r3
 8000116:	4152      	adcs	r2, r2
 8000118:	0b43      	lsrs	r3, r0, #13
 800011a:	428b      	cmp	r3, r1
 800011c:	d301      	bcc.n	8000122 <__udivsi3+0x5e>
 800011e:	034b      	lsls	r3, r1, #13
 8000120:	1ac0      	subs	r0, r0, r3
 8000122:	4152      	adcs	r2, r2
 8000124:	0b03      	lsrs	r3, r0, #12
 8000126:	428b      	cmp	r3, r1
 8000128:	d301      	bcc.n	800012e <__udivsi3+0x6a>
 800012a:	030b      	lsls	r3, r1, #12
 800012c:	1ac0      	subs	r0, r0, r3
 800012e:	4152      	adcs	r2, r2
 8000130:	0ac3      	lsrs	r3, r0, #11
 8000132:	428b      	cmp	r3, r1
 8000134:	d301      	bcc.n	800013a <__udivsi3+0x76>
 8000136:	02cb      	lsls	r3, r1, #11
 8000138:	1ac0      	subs	r0, r0, r3
 800013a:	4152      	adcs	r2, r2
 800013c:	0a83      	lsrs	r3, r0, #10
 800013e:	428b      	cmp	r3, r1
 8000140:	d301      	bcc.n	8000146 <__udivsi3+0x82>
 8000142:	028b      	lsls	r3, r1, #10
 8000144:	1ac0      	subs	r0, r0, r3
 8000146:	4152      	adcs	r2, r2
 8000148:	0a43      	lsrs	r3, r0, #9
 800014a:	428b      	cmp	r3, r1
 800014c:	d301      	bcc.n	8000152 <__udivsi3+0x8e>
 800014e:	024b      	lsls	r3, r1, #9
 8000150:	1ac0      	subs	r0, r0, r3
 8000152:	4152      	adcs	r2, r2
 8000154:	0a03      	lsrs	r3, r0, #8
 8000156:	428b      	cmp	r3, r1
 8000158:	d301      	bcc.n	800015e <__udivsi3+0x9a>
 800015a:	020b      	lsls	r3, r1, #8
 800015c:	1ac0      	subs	r0, r0, r3
 800015e:	4152      	adcs	r2, r2
 8000160:	d2cd      	bcs.n	80000fe <__udivsi3+0x3a>
 8000162:	09c3      	lsrs	r3, r0, #7
 8000164:	428b      	cmp	r3, r1
 8000166:	d301      	bcc.n	800016c <__udivsi3+0xa8>
 8000168:	01cb      	lsls	r3, r1, #7
 800016a:	1ac0      	subs	r0, r0, r3
 800016c:	4152      	adcs	r2, r2
 800016e:	0983      	lsrs	r3, r0, #6
 8000170:	428b      	cmp	r3, r1
 8000172:	d301      	bcc.n	8000178 <__udivsi3+0xb4>
 8000174:	018b      	lsls	r3, r1, #6
 8000176:	1ac0      	subs	r0, r0, r3
 8000178:	4152      	adcs	r2, r2
 800017a:	0943      	lsrs	r3, r0, #5
 800017c:	428b      	cmp	r3, r1
 800017e:	d301      	bcc.n	8000184 <__udivsi3+0xc0>
 8000180:	014b      	lsls	r3, r1, #5
 8000182:	1ac0      	subs	r0, r0, r3
 8000184:	4152      	adcs	r2, r2
 8000186:	0903      	lsrs	r3, r0, #4
 8000188:	428b      	cmp	r3, r1
 800018a:	d301      	bcc.n	8000190 <__udivsi3+0xcc>
 800018c:	010b      	lsls	r3, r1, #4
 800018e:	1ac0      	subs	r0, r0, r3
 8000190:	4152      	adcs	r2, r2
 8000192:	08c3      	lsrs	r3, r0, #3
 8000194:	428b      	cmp	r3, r1
 8000196:	d301      	bcc.n	800019c <__udivsi3+0xd8>
 8000198:	00cb      	lsls	r3, r1, #3
 800019a:	1ac0      	subs	r0, r0, r3
 800019c:	4152      	adcs	r2, r2
 800019e:	0883      	lsrs	r3, r0, #2
 80001a0:	428b      	cmp	r3, r1
 80001a2:	d301      	bcc.n	80001a8 <__udivsi3+0xe4>
 80001a4:	008b      	lsls	r3, r1, #2
 80001a6:	1ac0      	subs	r0, r0, r3
 80001a8:	4152      	adcs	r2, r2
 80001aa:	0843      	lsrs	r3, r0, #1
 80001ac:	428b      	cmp	r3, r1
 80001ae:	d301      	bcc.n	80001b4 <__udivsi3+0xf0>
 80001b0:	004b      	lsls	r3, r1, #1
 80001b2:	1ac0      	subs	r0, r0, r3
 80001b4:	4152      	adcs	r2, r2
 80001b6:	1a41      	subs	r1, r0, r1
 80001b8:	d200      	bcs.n	80001bc <__udivsi3+0xf8>
 80001ba:	4601      	mov	r1, r0
 80001bc:	4152      	adcs	r2, r2
 80001be:	4610      	mov	r0, r2
 80001c0:	4770      	bx	lr
 80001c2:	e7ff      	b.n	80001c4 <__udivsi3+0x100>
 80001c4:	b501      	push	{r0, lr}
 80001c6:	2000      	movs	r0, #0
 80001c8:	f000 f8f0 	bl	80003ac <__aeabi_idiv0>
 80001cc:	bd02      	pop	{r1, pc}
 80001ce:	46c0      	nop			; (mov r8, r8)

080001d0 <__aeabi_uidivmod>:
 80001d0:	2900      	cmp	r1, #0
 80001d2:	d0f7      	beq.n	80001c4 <__udivsi3+0x100>
 80001d4:	e776      	b.n	80000c4 <__udivsi3>
 80001d6:	4770      	bx	lr

080001d8 <__divsi3>:
 80001d8:	4603      	mov	r3, r0
 80001da:	430b      	orrs	r3, r1
 80001dc:	d47f      	bmi.n	80002de <__divsi3+0x106>
 80001de:	2200      	movs	r2, #0
 80001e0:	0843      	lsrs	r3, r0, #1
 80001e2:	428b      	cmp	r3, r1
 80001e4:	d374      	bcc.n	80002d0 <__divsi3+0xf8>
 80001e6:	0903      	lsrs	r3, r0, #4
 80001e8:	428b      	cmp	r3, r1
 80001ea:	d35f      	bcc.n	80002ac <__divsi3+0xd4>
 80001ec:	0a03      	lsrs	r3, r0, #8
 80001ee:	428b      	cmp	r3, r1
 80001f0:	d344      	bcc.n	800027c <__divsi3+0xa4>
 80001f2:	0b03      	lsrs	r3, r0, #12
 80001f4:	428b      	cmp	r3, r1
 80001f6:	d328      	bcc.n	800024a <__divsi3+0x72>
 80001f8:	0c03      	lsrs	r3, r0, #16
 80001fa:	428b      	cmp	r3, r1
 80001fc:	d30d      	bcc.n	800021a <__divsi3+0x42>
 80001fe:	22ff      	movs	r2, #255	; 0xff
 8000200:	0209      	lsls	r1, r1, #8
 8000202:	ba12      	rev	r2, r2
 8000204:	0c03      	lsrs	r3, r0, #16
 8000206:	428b      	cmp	r3, r1
 8000208:	d302      	bcc.n	8000210 <__divsi3+0x38>
 800020a:	1212      	asrs	r2, r2, #8
 800020c:	0209      	lsls	r1, r1, #8
 800020e:	d065      	beq.n	80002dc <__divsi3+0x104>
 8000210:	0b03      	lsrs	r3, r0, #12
 8000212:	428b      	cmp	r3, r1
 8000214:	d319      	bcc.n	800024a <__divsi3+0x72>
 8000216:	e000      	b.n	800021a <__divsi3+0x42>
 8000218:	0a09      	lsrs	r1, r1, #8
 800021a:	0bc3      	lsrs	r3, r0, #15
 800021c:	428b      	cmp	r3, r1
 800021e:	d301      	bcc.n	8000224 <__divsi3+0x4c>
 8000220:	03cb      	lsls	r3, r1, #15
 8000222:	1ac0      	subs	r0, r0, r3
 8000224:	4152      	adcs	r2, r2
 8000226:	0b83      	lsrs	r3, r0, #14
 8000228:	428b      	cmp	r3, r1
 800022a:	d301      	bcc.n	8000230 <__divsi3+0x58>
 800022c:	038b      	lsls	r3, r1, #14
 800022e:	1ac0      	subs	r0, r0, r3
 8000230:	4152      	adcs	r2, r2
 8000232:	0b43      	lsrs	r3, r0, #13
 8000234:	428b      	cmp	r3, r1
 8000236:	d301      	bcc.n	800023c <__divsi3+0x64>
 8000238:	034b      	lsls	r3, r1, #13
 800023a:	1ac0      	subs	r0, r0, r3
 800023c:	4152      	adcs	r2, r2
 800023e:	0b03      	lsrs	r3, r0, #12
 8000240:	428b      	cmp	r3, r1
 8000242:	d301      	bcc.n	8000248 <__divsi3+0x70>
 8000244:	030b      	lsls	r3, r1, #12
 8000246:	1ac0      	subs	r0, r0, r3
 8000248:	4152      	adcs	r2, r2
 800024a:	0ac3      	lsrs	r3, r0, #11
 800024c:	428b      	cmp	r3, r1
 800024e:	d301      	bcc.n	8000254 <__divsi3+0x7c>
 8000250:	02cb      	lsls	r3, r1, #11
 8000252:	1ac0      	subs	r0, r0, r3
 8000254:	4152      	adcs	r2, r2
 8000256:	0a83      	lsrs	r3, r0, #10
 8000258:	428b      	cmp	r3, r1
 800025a:	d301      	bcc.n	8000260 <__divsi3+0x88>
 800025c:	028b      	lsls	r3, r1, #10
 800025e:	1ac0      	subs	r0, r0, r3
 8000260:	4152      	adcs	r2, r2
 8000262:	0a43      	lsrs	r3, r0, #9
 8000264:	428b      	cmp	r3, r1
 8000266:	d301      	bcc.n	800026c <__divsi3+0x94>
 8000268:	024b      	lsls	r3, r1, #9
 800026a:	1ac0      	subs	r0, r0, r3
 800026c:	4152      	adcs	r2, r2
 800026e:	0a03      	lsrs	r3, r0, #8
 8000270:	428b      	cmp	r3, r1
 8000272:	d301      	bcc.n	8000278 <__divsi3+0xa0>
 8000274:	020b      	lsls	r3, r1, #8
 8000276:	1ac0      	subs	r0, r0, r3
 8000278:	4152      	adcs	r2, r2
 800027a:	d2cd      	bcs.n	8000218 <__divsi3+0x40>
 800027c:	09c3      	lsrs	r3, r0, #7
 800027e:	428b      	cmp	r3, r1
 8000280:	d301      	bcc.n	8000286 <__divsi3+0xae>
 8000282:	01cb      	lsls	r3, r1, #7
 8000284:	1ac0      	subs	r0, r0, r3
 8000286:	4152      	adcs	r2, r2
 8000288:	0983      	lsrs	r3, r0, #6
 800028a:	428b      	cmp	r3, r1
 800028c:	d301      	bcc.n	8000292 <__divsi3+0xba>
 800028e:	018b      	lsls	r3, r1, #6
 8000290:	1ac0      	subs	r0, r0, r3
 8000292:	4152      	adcs	r2, r2
 8000294:	0943      	lsrs	r3, r0, #5
 8000296:	428b      	cmp	r3, r1
 8000298:	d301      	bcc.n	800029e <__divsi3+0xc6>
 800029a:	014b      	lsls	r3, r1, #5
 800029c:	1ac0      	subs	r0, r0, r3
 800029e:	4152      	adcs	r2, r2
 80002a0:	0903      	lsrs	r3, r0, #4
 80002a2:	428b      	cmp	r3, r1
 80002a4:	d301      	bcc.n	80002aa <__divsi3+0xd2>
 80002a6:	010b      	lsls	r3, r1, #4
 80002a8:	1ac0      	subs	r0, r0, r3
 80002aa:	4152      	adcs	r2, r2
 80002ac:	08c3      	lsrs	r3, r0, #3
 80002ae:	428b      	cmp	r3, r1
 80002b0:	d301      	bcc.n	80002b6 <__divsi3+0xde>
 80002b2:	00cb      	lsls	r3, r1, #3
 80002b4:	1ac0      	subs	r0, r0, r3
 80002b6:	4152      	adcs	r2, r2
 80002b8:	0883      	lsrs	r3, r0, #2
 80002ba:	428b      	cmp	r3, r1
 80002bc:	d301      	bcc.n	80002c2 <__divsi3+0xea>
 80002be:	008b      	lsls	r3, r1, #2
 80002c0:	1ac0      	subs	r0, r0, r3
 80002c2:	4152      	adcs	r2, r2
 80002c4:	0843      	lsrs	r3, r0, #1
 80002c6:	428b      	cmp	r3, r1
 80002c8:	d301      	bcc.n	80002ce <__divsi3+0xf6>
 80002ca:	004b      	lsls	r3, r1, #1
 80002cc:	1ac0      	subs	r0, r0, r3
 80002ce:	4152      	adcs	r2, r2
 80002d0:	1a41      	subs	r1, r0, r1
 80002d2:	d200      	bcs.n	80002d6 <__divsi3+0xfe>
 80002d4:	4601      	mov	r1, r0
 80002d6:	4152      	adcs	r2, r2
 80002d8:	4610      	mov	r0, r2
 80002da:	4770      	bx	lr
 80002dc:	e05d      	b.n	800039a <__divsi3+0x1c2>
 80002de:	0fca      	lsrs	r2, r1, #31
 80002e0:	d000      	beq.n	80002e4 <__divsi3+0x10c>
 80002e2:	4249      	negs	r1, r1
 80002e4:	1003      	asrs	r3, r0, #32
 80002e6:	d300      	bcc.n	80002ea <__divsi3+0x112>
 80002e8:	4240      	negs	r0, r0
 80002ea:	4053      	eors	r3, r2
 80002ec:	2200      	movs	r2, #0
 80002ee:	469c      	mov	ip, r3
 80002f0:	0903      	lsrs	r3, r0, #4
 80002f2:	428b      	cmp	r3, r1
 80002f4:	d32d      	bcc.n	8000352 <__divsi3+0x17a>
 80002f6:	0a03      	lsrs	r3, r0, #8
 80002f8:	428b      	cmp	r3, r1
 80002fa:	d312      	bcc.n	8000322 <__divsi3+0x14a>
 80002fc:	22fc      	movs	r2, #252	; 0xfc
 80002fe:	0189      	lsls	r1, r1, #6
 8000300:	ba12      	rev	r2, r2
 8000302:	0a03      	lsrs	r3, r0, #8
 8000304:	428b      	cmp	r3, r1
 8000306:	d30c      	bcc.n	8000322 <__divsi3+0x14a>
 8000308:	0189      	lsls	r1, r1, #6
 800030a:	1192      	asrs	r2, r2, #6
 800030c:	428b      	cmp	r3, r1
 800030e:	d308      	bcc.n	8000322 <__divsi3+0x14a>
 8000310:	0189      	lsls	r1, r1, #6
 8000312:	1192      	asrs	r2, r2, #6
 8000314:	428b      	cmp	r3, r1
 8000316:	d304      	bcc.n	8000322 <__divsi3+0x14a>
 8000318:	0189      	lsls	r1, r1, #6
 800031a:	d03a      	beq.n	8000392 <__divsi3+0x1ba>
 800031c:	1192      	asrs	r2, r2, #6
 800031e:	e000      	b.n	8000322 <__divsi3+0x14a>
 8000320:	0989      	lsrs	r1, r1, #6
 8000322:	09c3      	lsrs	r3, r0, #7
 8000324:	428b      	cmp	r3, r1
 8000326:	d301      	bcc.n	800032c <__divsi3+0x154>
 8000328:	01cb      	lsls	r3, r1, #7
 800032a:	1ac0      	subs	r0, r0, r3
 800032c:	4152      	adcs	r2, r2
 800032e:	0983      	lsrs	r3, r0, #6
 8000330:	428b      	cmp	r3, r1
 8000332:	d301      	bcc.n	8000338 <__divsi3+0x160>
 8000334:	018b      	lsls	r3, r1, #6
 8000336:	1ac0      	subs	r0, r0, r3
 8000338:	4152      	adcs	r2, r2
 800033a:	0943      	lsrs	r3, r0, #5
 800033c:	428b      	cmp	r3, r1
 800033e:	d301      	bcc.n	8000344 <__divsi3+0x16c>
 8000340:	014b      	lsls	r3, r1, #5
 8000342:	1ac0      	subs	r0, r0, r3
 8000344:	4152      	adcs	r2, r2
 8000346:	0903      	lsrs	r3, r0, #4
 8000348:	428b      	cmp	r3, r1
 800034a:	d301      	bcc.n	8000350 <__divsi3+0x178>
 800034c:	010b      	lsls	r3, r1, #4
 800034e:	1ac0      	subs	r0, r0, r3
 8000350:	4152      	adcs	r2, r2
 8000352:	08c3      	lsrs	r3, r0, #3
 8000354:	428b      	cmp	r3, r1
 8000356:	d301      	bcc.n	800035c <__divsi3+0x184>
 8000358:	00cb      	lsls	r3, r1, #3
 800035a:	1ac0      	subs	r0, r0, r3
 800035c:	4152      	adcs	r2, r2
 800035e:	0883      	lsrs	r3, r0, #2
 8000360:	428b      	cmp	r3, r1
 8000362:	d301      	bcc.n	8000368 <__divsi3+0x190>
 8000364:	008b      	lsls	r3, r1, #2
 8000366:	1ac0      	subs	r0, r0, r3
 8000368:	4152      	adcs	r2, r2
 800036a:	d2d9      	bcs.n	8000320 <__divsi3+0x148>
 800036c:	0843      	lsrs	r3, r0, #1
 800036e:	428b      	cmp	r3, r1
 8000370:	d301      	bcc.n	8000376 <__divsi3+0x19e>
 8000372:	004b      	lsls	r3, r1, #1
 8000374:	1ac0      	subs	r0, r0, r3
 8000376:	4152      	adcs	r2, r2
 8000378:	1a41      	subs	r1, r0, r1
 800037a:	d200      	bcs.n	800037e <__divsi3+0x1a6>
 800037c:	4601      	mov	r1, r0
 800037e:	4663      	mov	r3, ip
 8000380:	4152      	adcs	r2, r2
 8000382:	105b      	asrs	r3, r3, #1
 8000384:	4610      	mov	r0, r2
 8000386:	d301      	bcc.n	800038c <__divsi3+0x1b4>
 8000388:	4240      	negs	r0, r0
 800038a:	2b00      	cmp	r3, #0
 800038c:	d500      	bpl.n	8000390 <__divsi3+0x1b8>
 800038e:	4249      	negs	r1, r1
 8000390:	4770      	bx	lr
 8000392:	4663      	mov	r3, ip
 8000394:	105b      	asrs	r3, r3, #1
 8000396:	d300      	bcc.n	800039a <__divsi3+0x1c2>
 8000398:	4240      	negs	r0, r0
 800039a:	b501      	push	{r0, lr}
 800039c:	2000      	movs	r0, #0
 800039e:	f000 f805 	bl	80003ac <__aeabi_idiv0>
 80003a2:	bd02      	pop	{r1, pc}

080003a4 <__aeabi_idivmod>:
 80003a4:	2900      	cmp	r1, #0
 80003a6:	d0f8      	beq.n	800039a <__divsi3+0x1c2>
 80003a8:	e716      	b.n	80001d8 <__divsi3>
 80003aa:	4770      	bx	lr

080003ac <__aeabi_idiv0>:
 80003ac:	4770      	bx	lr
 80003ae:	46c0      	nop			; (mov r8, r8)

080003b0 <deregister_tm_clones>:
 80003b0:	4804      	ldr	r0, [pc, #16]	; (80003c4 <deregister_tm_clones+0x14>)
 80003b2:	4b05      	ldr	r3, [pc, #20]	; (80003c8 <deregister_tm_clones+0x18>)
 80003b4:	b510      	push	{r4, lr}
 80003b6:	4283      	cmp	r3, r0
 80003b8:	d003      	beq.n	80003c2 <deregister_tm_clones+0x12>
 80003ba:	4b04      	ldr	r3, [pc, #16]	; (80003cc <deregister_tm_clones+0x1c>)
 80003bc:	2b00      	cmp	r3, #0
 80003be:	d000      	beq.n	80003c2 <deregister_tm_clones+0x12>
 80003c0:	4798      	blx	r3
 80003c2:	bd10      	pop	{r4, pc}
 80003c4:	20000030 	.word	0x20000030
 80003c8:	20000030 	.word	0x20000030
 80003cc:	00000000 	.word	0x00000000

080003d0 <register_tm_clones>:
 80003d0:	4806      	ldr	r0, [pc, #24]	; (80003ec <register_tm_clones+0x1c>)
 80003d2:	4907      	ldr	r1, [pc, #28]	; (80003f0 <register_tm_clones+0x20>)
 80003d4:	1a09      	subs	r1, r1, r0
 80003d6:	108b      	asrs	r3, r1, #2
 80003d8:	0fc9      	lsrs	r1, r1, #31
 80003da:	18c9      	adds	r1, r1, r3
 80003dc:	b510      	push	{r4, lr}
 80003de:	1049      	asrs	r1, r1, #1
 80003e0:	d003      	beq.n	80003ea <register_tm_clones+0x1a>
 80003e2:	4b04      	ldr	r3, [pc, #16]	; (80003f4 <register_tm_clones+0x24>)
 80003e4:	2b00      	cmp	r3, #0
 80003e6:	d000      	beq.n	80003ea <register_tm_clones+0x1a>
 80003e8:	4798      	blx	r3
 80003ea:	bd10      	pop	{r4, pc}
 80003ec:	20000030 	.word	0x20000030
 80003f0:	20000030 	.word	0x20000030
 80003f4:	00000000 	.word	0x00000000

080003f8 <__do_global_dtors_aux>:
 80003f8:	b510      	push	{r4, lr}
 80003fa:	4c07      	ldr	r4, [pc, #28]	; (8000418 <__do_global_dtors_aux+0x20>)
 80003fc:	7823      	ldrb	r3, [r4, #0]
 80003fe:	2b00      	cmp	r3, #0
 8000400:	d109      	bne.n	8000416 <__do_global_dtors_aux+0x1e>
 8000402:	f7ff ffd5 	bl	80003b0 <deregister_tm_clones>
 8000406:	4b05      	ldr	r3, [pc, #20]	; (800041c <__do_global_dtors_aux+0x24>)
 8000408:	2b00      	cmp	r3, #0
 800040a:	d002      	beq.n	8000412 <__do_global_dtors_aux+0x1a>
 800040c:	4804      	ldr	r0, [pc, #16]	; (8000420 <__do_global_dtors_aux+0x28>)
 800040e:	e000      	b.n	8000412 <__do_global_dtors_aux+0x1a>
 8000410:	bf00      	nop
 8000412:	2301      	movs	r3, #1
 8000414:	7023      	strb	r3, [r4, #0]
 8000416:	bd10      	pop	{r4, pc}
 8000418:	20000030 	.word	0x20000030
 800041c:	00000000 	.word	0x00000000
 8000420:	08001620 	.word	0x08001620

08000424 <frame_dummy>:
 8000424:	4b05      	ldr	r3, [pc, #20]	; (800043c <frame_dummy+0x18>)
 8000426:	b510      	push	{r4, lr}
 8000428:	2b00      	cmp	r3, #0
 800042a:	d003      	beq.n	8000434 <frame_dummy+0x10>
 800042c:	4904      	ldr	r1, [pc, #16]	; (8000440 <frame_dummy+0x1c>)
 800042e:	4805      	ldr	r0, [pc, #20]	; (8000444 <frame_dummy+0x20>)
 8000430:	e000      	b.n	8000434 <frame_dummy+0x10>
 8000432:	bf00      	nop
 8000434:	f7ff ffcc 	bl	80003d0 <register_tm_clones>
 8000438:	bd10      	pop	{r4, pc}
 800043a:	46c0      	nop			; (mov r8, r8)
 800043c:	00000000 	.word	0x00000000
 8000440:	20000034 	.word	0x20000034
 8000444:	08001620 	.word	0x08001620

08000448 <Reset_Handler>:
 8000448:	480c      	ldr	r0, [pc, #48]	; (800047c <LoopForever+0x2>)
 800044a:	4685      	mov	sp, r0
 800044c:	2100      	movs	r1, #0
 800044e:	e003      	b.n	8000458 <LoopCopyDataInit>

08000450 <CopyDataInit>:
 8000450:	4b0b      	ldr	r3, [pc, #44]	; (8000480 <LoopForever+0x6>)
 8000452:	585b      	ldr	r3, [r3, r1]
 8000454:	5043      	str	r3, [r0, r1]
 8000456:	3104      	adds	r1, #4

08000458 <LoopCopyDataInit>:
 8000458:	480a      	ldr	r0, [pc, #40]	; (8000484 <LoopForever+0xa>)
 800045a:	4b0b      	ldr	r3, [pc, #44]	; (8000488 <LoopForever+0xe>)
 800045c:	1842      	adds	r2, r0, r1
 800045e:	429a      	cmp	r2, r3
 8000460:	d3f6      	bcc.n	8000450 <CopyDataInit>
 8000462:	4a0a      	ldr	r2, [pc, #40]	; (800048c <LoopForever+0x12>)
 8000464:	e002      	b.n	800046c <LoopFillZerobss>

08000466 <FillZerobss>:
 8000466:	2300      	movs	r3, #0
 8000468:	6013      	str	r3, [r2, #0]
 800046a:	3204      	adds	r2, #4

0800046c <LoopFillZerobss>:
 800046c:	4b08      	ldr	r3, [pc, #32]	; (8000490 <LoopForever+0x16>)
 800046e:	429a      	cmp	r2, r3
 8000470:	d3f9      	bcc.n	8000466 <FillZerobss>
 8000472:	f000 feb3 	bl	80011dc <SystemInit>
 8000476:	f000 fa37 	bl	80008e8 <main>

0800047a <LoopForever>:
 800047a:	e7fe      	b.n	800047a <LoopForever>
 800047c:	20001000 	.word	0x20001000
 8000480:	08001640 	.word	0x08001640
 8000484:	20000000 	.word	0x20000000
 8000488:	20000030 	.word	0x20000030
 800048c:	20000030 	.word	0x20000030
 8000490:	20000a24 	.word	0x20000a24

08000494 <ADC1_IRQHandler>:
 8000494:	e7fe      	b.n	8000494 <ADC1_IRQHandler>
	...

08000498 <uart_tx_dma_config.constprop.0>:
 8000498:	4b09      	ldr	r3, [pc, #36]	; (80004c0 <uart_tx_dma_config.constprop.0+0x28>)
 800049a:	490a      	ldr	r1, [pc, #40]	; (80004c4 <uart_tx_dma_config.constprop.0+0x2c>)
 800049c:	681a      	ldr	r2, [r3, #0]
 800049e:	400a      	ands	r2, r1
 80004a0:	601a      	str	r2, [r3, #0]
 80004a2:	60d8      	str	r0, [r3, #12]
 80004a4:	20b6      	movs	r0, #182	; 0xb6
 80004a6:	2120      	movs	r1, #32
 80004a8:	0082      	lsls	r2, r0, #2
 80004aa:	4807      	ldr	r0, [pc, #28]	; (80004c8 <uart_tx_dma_config.constprop.0+0x30>)
 80004ac:	605a      	str	r2, [r3, #4]
 80004ae:	6041      	str	r1, [r0, #4]
 80004b0:	3160      	adds	r1, #96	; 0x60
 80004b2:	6041      	str	r1, [r0, #4]
 80004b4:	681a      	ldr	r2, [r3, #0]
 80004b6:	397f      	subs	r1, #127	; 0x7f
 80004b8:	430a      	orrs	r2, r1
 80004ba:	601a      	str	r2, [r3, #0]
 80004bc:	4770      	bx	lr
 80004be:	46c0      	nop			; (mov r8, r8)
 80004c0:	4002001c 	.word	0x4002001c
 80004c4:	0000fffe 	.word	0x0000fffe
 80004c8:	40020000 	.word	0x40020000

080004cc <DMA_Init>:
 80004cc:	6803      	ldr	r3, [r0, #0]
 80004ce:	4a0d      	ldr	r2, [pc, #52]	; (8000504 <DMA_Init+0x38>)
 80004d0:	b510      	push	{r4, lr}
 80004d2:	401a      	ands	r2, r3
 80004d4:	6a0c      	ldr	r4, [r1, #32]
 80004d6:	688b      	ldr	r3, [r1, #8]
 80004d8:	4323      	orrs	r3, r4
 80004da:	690c      	ldr	r4, [r1, #16]
 80004dc:	4323      	orrs	r3, r4
 80004de:	694c      	ldr	r4, [r1, #20]
 80004e0:	4323      	orrs	r3, r4
 80004e2:	698c      	ldr	r4, [r1, #24]
 80004e4:	4323      	orrs	r3, r4
 80004e6:	69cc      	ldr	r4, [r1, #28]
 80004e8:	4323      	orrs	r3, r4
 80004ea:	6a4c      	ldr	r4, [r1, #36]	; 0x24
 80004ec:	4323      	orrs	r3, r4
 80004ee:	6a8c      	ldr	r4, [r1, #40]	; 0x28
 80004f0:	4323      	orrs	r3, r4
 80004f2:	4313      	orrs	r3, r2
 80004f4:	6003      	str	r3, [r0, #0]
 80004f6:	68ca      	ldr	r2, [r1, #12]
 80004f8:	680b      	ldr	r3, [r1, #0]
 80004fa:	6849      	ldr	r1, [r1, #4]
 80004fc:	6042      	str	r2, [r0, #4]
 80004fe:	6083      	str	r3, [r0, #8]
 8000500:	60c1      	str	r1, [r0, #12]
 8000502:	bd10      	pop	{r4, pc}
 8000504:	ffff800f 	.word	0xffff800f

08000508 <RCC_GetClocksFreq>:
 8000508:	b5f8      	push	{r3, r4, r5, r6, r7, lr}
 800050a:	230c      	movs	r3, #12
 800050c:	4a5e      	ldr	r2, [pc, #376]	; (8000688 <RCC_GetClocksFreq+0x180>)
 800050e:	0004      	movs	r4, r0
 8000510:	6851      	ldr	r1, [r2, #4]
 8000512:	400b      	ands	r3, r1
 8000514:	2b08      	cmp	r3, #8
 8000516:	d100      	bne.n	800051a <RCC_GetClocksFreq+0x12>
 8000518:	e08c      	b.n	8000634 <RCC_GetClocksFreq+0x12c>
 800051a:	2b0c      	cmp	r3, #12
 800051c:	d100      	bne.n	8000520 <RCC_GetClocksFreq+0x18>
 800051e:	e085      	b.n	800062c <RCC_GetClocksFreq+0x124>
 8000520:	485a      	ldr	r0, [pc, #360]	; (800068c <RCC_GetClocksFreq+0x184>)
 8000522:	6020      	str	r0, [r4, #0]
 8000524:	2000      	movs	r0, #0
 8000526:	4f58      	ldr	r7, [pc, #352]	; (8000688 <RCC_GetClocksFreq+0x180>)
 8000528:	687e      	ldr	r6, [r7, #4]
 800052a:	0635      	lsls	r5, r6, #24
 800052c:	0f29      	lsrs	r1, r5, #28
 800052e:	6825      	ldr	r5, [r4, #0]
 8000530:	4e57      	ldr	r6, [pc, #348]	; (8000690 <RCC_GetClocksFreq+0x188>)
 8000532:	002a      	movs	r2, r5
 8000534:	5c73      	ldrb	r3, [r6, r1]
 8000536:	40da      	lsrs	r2, r3
 8000538:	6062      	str	r2, [r4, #4]
 800053a:	6879      	ldr	r1, [r7, #4]
 800053c:	054b      	lsls	r3, r1, #21
 800053e:	0f59      	lsrs	r1, r3, #29
 8000540:	5c76      	ldrb	r6, [r6, r1]
 8000542:	40f2      	lsrs	r2, r6
 8000544:	60a2      	str	r2, [r4, #8]
 8000546:	6b3b      	ldr	r3, [r7, #48]	; 0x30
 8000548:	05db      	lsls	r3, r3, #23
 800054a:	d466      	bmi.n	800061a <RCC_GetClocksFreq+0x112>
 800054c:	4b51      	ldr	r3, [pc, #324]	; (8000694 <RCC_GetClocksFreq+0x18c>)
 800054e:	60e3      	str	r3, [r4, #12]
 8000550:	2640      	movs	r6, #64	; 0x40
 8000552:	4f4d      	ldr	r7, [pc, #308]	; (8000688 <RCC_GetClocksFreq+0x180>)
 8000554:	6b39      	ldr	r1, [r7, #48]	; 0x30
 8000556:	400e      	ands	r6, r1
 8000558:	4271      	negs	r1, r6
 800055a:	414e      	adcs	r6, r1
 800055c:	2112      	movs	r1, #18
 800055e:	4273      	negs	r3, r6
 8000560:	2680      	movs	r6, #128	; 0x80
 8000562:	400b      	ands	r3, r1
 8000564:	0231      	lsls	r1, r6, #8
 8000566:	468c      	mov	ip, r1
 8000568:	4463      	add	r3, ip
 800056a:	6123      	str	r3, [r4, #16]
 800056c:	6b3f      	ldr	r7, [r7, #48]	; 0x30
 800056e:	06fb      	lsls	r3, r7, #27
 8000570:	d551      	bpl.n	8000616 <RCC_GetClocksFreq+0x10e>
 8000572:	002b      	movs	r3, r5
 8000574:	2703      	movs	r7, #3
 8000576:	4944      	ldr	r1, [pc, #272]	; (8000688 <RCC_GetClocksFreq+0x180>)
 8000578:	6163      	str	r3, [r4, #20]
 800057a:	6b0e      	ldr	r6, [r1, #48]	; 0x30
 800057c:	4237      	tst	r7, r6
 800057e:	d13b      	bne.n	80005f8 <RCC_GetClocksFreq+0xf0>
 8000580:	61a2      	str	r2, [r4, #24]
 8000582:	23c0      	movs	r3, #192	; 0xc0
 8000584:	4940      	ldr	r1, [pc, #256]	; (8000688 <RCC_GetClocksFreq+0x180>)
 8000586:	029b      	lsls	r3, r3, #10
 8000588:	6b0f      	ldr	r7, [r1, #48]	; 0x30
 800058a:	421f      	tst	r7, r3
 800058c:	d121      	bne.n	80005d2 <RCC_GetClocksFreq+0xca>
 800058e:	61e2      	str	r2, [r4, #28]
 8000590:	23c0      	movs	r3, #192	; 0xc0
 8000592:	493d      	ldr	r1, [pc, #244]	; (8000688 <RCC_GetClocksFreq+0x180>)
 8000594:	031f      	lsls	r7, r3, #12
 8000596:	6b0e      	ldr	r6, [r1, #48]	; 0x30
 8000598:	423e      	tst	r6, r7
 800059a:	d107      	bne.n	80005ac <RCC_GetClocksFreq+0xa4>
 800059c:	6222      	str	r2, [r4, #32]
 800059e:	4d3a      	ldr	r5, [pc, #232]	; (8000688 <RCC_GetClocksFreq+0x180>)
 80005a0:	6b2e      	ldr	r6, [r5, #48]	; 0x30
 80005a2:	0633      	lsls	r3, r6, #24
 80005a4:	d400      	bmi.n	80005a8 <RCC_GetClocksFreq+0xa0>
 80005a6:	483c      	ldr	r0, [pc, #240]	; (8000698 <RCC_GetClocksFreq+0x190>)
 80005a8:	6260      	str	r0, [r4, #36]	; 0x24
 80005aa:	bdf8      	pop	{r3, r4, r5, r6, r7, pc}
 80005ac:	2680      	movs	r6, #128	; 0x80
 80005ae:	6b0a      	ldr	r2, [r1, #48]	; 0x30
 80005b0:	02f3      	lsls	r3, r6, #11
 80005b2:	403a      	ands	r2, r7
 80005b4:	429a      	cmp	r2, r3
 80005b6:	d04b      	beq.n	8000650 <RCC_GetClocksFreq+0x148>
 80005b8:	2580      	movs	r5, #128	; 0x80
 80005ba:	6b0a      	ldr	r2, [r1, #48]	; 0x30
 80005bc:	032e      	lsls	r6, r5, #12
 80005be:	403a      	ands	r2, r7
 80005c0:	42b2      	cmp	r2, r6
 80005c2:	d058      	beq.n	8000676 <RCC_GetClocksFreq+0x16e>
 80005c4:	6b09      	ldr	r1, [r1, #48]	; 0x30
 80005c6:	4039      	ands	r1, r7
 80005c8:	42b9      	cmp	r1, r7
 80005ca:	d1e8      	bne.n	800059e <RCC_GetClocksFreq+0x96>
 80005cc:	4f2f      	ldr	r7, [pc, #188]	; (800068c <RCC_GetClocksFreq+0x184>)
 80005ce:	6227      	str	r7, [r4, #32]
 80005d0:	e7e5      	b.n	800059e <RCC_GetClocksFreq+0x96>
 80005d2:	2780      	movs	r7, #128	; 0x80
 80005d4:	6b0e      	ldr	r6, [r1, #48]	; 0x30
 80005d6:	027f      	lsls	r7, r7, #9
 80005d8:	401e      	ands	r6, r3
 80005da:	42be      	cmp	r6, r7
 80005dc:	d03a      	beq.n	8000654 <RCC_GetClocksFreq+0x14c>
 80005de:	2780      	movs	r7, #128	; 0x80
 80005e0:	6b0e      	ldr	r6, [r1, #48]	; 0x30
 80005e2:	02bf      	lsls	r7, r7, #10
 80005e4:	401e      	ands	r6, r3
 80005e6:	42be      	cmp	r6, r7
 80005e8:	d049      	beq.n	800067e <RCC_GetClocksFreq+0x176>
 80005ea:	6b09      	ldr	r1, [r1, #48]	; 0x30
 80005ec:	4019      	ands	r1, r3
 80005ee:	4299      	cmp	r1, r3
 80005f0:	d1ce      	bne.n	8000590 <RCC_GetClocksFreq+0x88>
 80005f2:	4b26      	ldr	r3, [pc, #152]	; (800068c <RCC_GetClocksFreq+0x184>)
 80005f4:	61e3      	str	r3, [r4, #28]
 80005f6:	e7cb      	b.n	8000590 <RCC_GetClocksFreq+0x88>
 80005f8:	6b0b      	ldr	r3, [r1, #48]	; 0x30
 80005fa:	403b      	ands	r3, r7
 80005fc:	2b01      	cmp	r3, #1
 80005fe:	d02b      	beq.n	8000658 <RCC_GetClocksFreq+0x150>
 8000600:	6b0e      	ldr	r6, [r1, #48]	; 0x30
 8000602:	403e      	ands	r6, r7
 8000604:	2e02      	cmp	r6, #2
 8000606:	d032      	beq.n	800066e <RCC_GetClocksFreq+0x166>
 8000608:	6b09      	ldr	r1, [r1, #48]	; 0x30
 800060a:	400f      	ands	r7, r1
 800060c:	2f03      	cmp	r7, #3
 800060e:	d1b8      	bne.n	8000582 <RCC_GetClocksFreq+0x7a>
 8000610:	4f1e      	ldr	r7, [pc, #120]	; (800068c <RCC_GetClocksFreq+0x184>)
 8000612:	61a7      	str	r7, [r4, #24]
 8000614:	e7b5      	b.n	8000582 <RCC_GetClocksFreq+0x7a>
 8000616:	4b1d      	ldr	r3, [pc, #116]	; (800068c <RCC_GetClocksFreq+0x184>)
 8000618:	e7ac      	b.n	8000574 <RCC_GetClocksFreq+0x6c>
 800061a:	687f      	ldr	r7, [r7, #4]
 800061c:	047b      	lsls	r3, r7, #17
 800061e:	d402      	bmi.n	8000626 <RCC_GetClocksFreq+0x11e>
 8000620:	0856      	lsrs	r6, r2, #1
 8000622:	60e6      	str	r6, [r4, #12]
 8000624:	e794      	b.n	8000550 <RCC_GetClocksFreq+0x48>
 8000626:	0891      	lsrs	r1, r2, #2
 8000628:	60e1      	str	r1, [r4, #12]
 800062a:	e791      	b.n	8000550 <RCC_GetClocksFreq+0x48>
 800062c:	4a1a      	ldr	r2, [pc, #104]	; (8000698 <RCC_GetClocksFreq+0x190>)
 800062e:	6002      	str	r2, [r0, #0]
 8000630:	2000      	movs	r0, #0
 8000632:	e778      	b.n	8000526 <RCC_GetClocksFreq+0x1e>
 8000634:	270f      	movs	r7, #15
 8000636:	21c0      	movs	r1, #192	; 0xc0
 8000638:	6850      	ldr	r0, [r2, #4]
 800063a:	6856      	ldr	r6, [r2, #4]
 800063c:	0c85      	lsrs	r5, r0, #18
 800063e:	403d      	ands	r5, r7
 8000640:	024b      	lsls	r3, r1, #9
 8000642:	3502      	adds	r5, #2
 8000644:	421e      	tst	r6, r3
 8000646:	d109      	bne.n	800065c <RCC_GetClocksFreq+0x154>
 8000648:	4814      	ldr	r0, [pc, #80]	; (800069c <RCC_GetClocksFreq+0x194>)
 800064a:	4368      	muls	r0, r5
 800064c:	6020      	str	r0, [r4, #0]
 800064e:	e76a      	b.n	8000526 <RCC_GetClocksFreq+0x1e>
 8000650:	6225      	str	r5, [r4, #32]
 8000652:	e7a4      	b.n	800059e <RCC_GetClocksFreq+0x96>
 8000654:	61e5      	str	r5, [r4, #28]
 8000656:	e79b      	b.n	8000590 <RCC_GetClocksFreq+0x88>
 8000658:	61a5      	str	r5, [r4, #24]
 800065a:	e792      	b.n	8000582 <RCC_GetClocksFreq+0x7a>
 800065c:	6ad1      	ldr	r1, [r2, #44]	; 0x2c
 800065e:	480b      	ldr	r0, [pc, #44]	; (800068c <RCC_GetClocksFreq+0x184>)
 8000660:	4039      	ands	r1, r7
 8000662:	3101      	adds	r1, #1
 8000664:	f7ff fd2e 	bl	80000c4 <__udivsi3>
 8000668:	4368      	muls	r0, r5
 800066a:	6020      	str	r0, [r4, #0]
 800066c:	e75b      	b.n	8000526 <RCC_GetClocksFreq+0x1e>
 800066e:	2380      	movs	r3, #128	; 0x80
 8000670:	021e      	lsls	r6, r3, #8
 8000672:	61a6      	str	r6, [r4, #24]
 8000674:	e785      	b.n	8000582 <RCC_GetClocksFreq+0x7a>
 8000676:	2380      	movs	r3, #128	; 0x80
 8000678:	021a      	lsls	r2, r3, #8
 800067a:	6222      	str	r2, [r4, #32]
 800067c:	e78f      	b.n	800059e <RCC_GetClocksFreq+0x96>
 800067e:	2680      	movs	r6, #128	; 0x80
 8000680:	0237      	lsls	r7, r6, #8
 8000682:	61e7      	str	r7, [r4, #28]
 8000684:	e784      	b.n	8000590 <RCC_GetClocksFreq+0x88>
 8000686:	46c0      	nop			; (mov r8, r8)
 8000688:	40021000 	.word	0x40021000
 800068c:	007a1200 	.word	0x007a1200
 8000690:	20000014 	.word	0x20000014
 8000694:	00d59f80 	.word	0x00d59f80
 8000698:	02dc6c00 	.word	0x02dc6c00
 800069c:	003d0900 	.word	0x003d0900

080006a0 <GPIO_Init>:
 80006a0:	b5f0      	push	{r4, r5, r6, r7, lr}
 80006a2:	46de      	mov	lr, fp
 80006a4:	4657      	mov	r7, sl
 80006a6:	464e      	mov	r6, r9
 80006a8:	4645      	mov	r5, r8
 80006aa:	2201      	movs	r2, #1
 80006ac:	b5e0      	push	{r5, r6, r7, lr}
 80006ae:	4693      	mov	fp, r2
 80006b0:	3202      	adds	r2, #2
 80006b2:	2300      	movs	r3, #0
 80006b4:	4694      	mov	ip, r2
 80006b6:	680f      	ldr	r7, [r1, #0]
 80006b8:	b083      	sub	sp, #12
 80006ba:	e002      	b.n	80006c2 <GPIO_Init+0x22>
 80006bc:	3301      	adds	r3, #1
 80006be:	2b10      	cmp	r3, #16
 80006c0:	d03c      	beq.n	800073c <GPIO_Init+0x9c>
 80006c2:	465a      	mov	r2, fp
 80006c4:	409a      	lsls	r2, r3
 80006c6:	0014      	movs	r4, r2
 80006c8:	403c      	ands	r4, r7
 80006ca:	42a2      	cmp	r2, r4
 80006cc:	d1f6      	bne.n	80006bc <GPIO_Init+0x1c>
 80006ce:	005d      	lsls	r5, r3, #1
 80006d0:	46a8      	mov	r8, r5
 80006d2:	4665      	mov	r5, ip
 80006d4:	4646      	mov	r6, r8
 80006d6:	40b5      	lsls	r5, r6
 80006d8:	43ed      	mvns	r5, r5
 80006da:	790c      	ldrb	r4, [r1, #4]
 80006dc:	9501      	str	r5, [sp, #4]
 80006de:	1e66      	subs	r6, r4, #1
 80006e0:	2e01      	cmp	r6, #1
 80006e2:	d815      	bhi.n	8000710 <GPIO_Init+0x70>
 80006e4:	6886      	ldr	r6, [r0, #8]
 80006e6:	402e      	ands	r6, r5
 80006e8:	6086      	str	r6, [r0, #8]
 80006ea:	6885      	ldr	r5, [r0, #8]
 80006ec:	794e      	ldrb	r6, [r1, #5]
 80006ee:	46aa      	mov	sl, r5
 80006f0:	4645      	mov	r5, r8
 80006f2:	40ae      	lsls	r6, r5
 80006f4:	0035      	movs	r5, r6
 80006f6:	4656      	mov	r6, sl
 80006f8:	432e      	orrs	r6, r5
 80006fa:	6086      	str	r6, [r0, #8]
 80006fc:	8885      	ldrh	r5, [r0, #4]
 80006fe:	4395      	bics	r5, r2
 8000700:	8085      	strh	r5, [r0, #4]
 8000702:	798e      	ldrb	r6, [r1, #6]
 8000704:	8882      	ldrh	r2, [r0, #4]
 8000706:	0035      	movs	r5, r6
 8000708:	409d      	lsls	r5, r3
 800070a:	432a      	orrs	r2, r5
 800070c:	b292      	uxth	r2, r2
 800070e:	8082      	strh	r2, [r0, #4]
 8000710:	6806      	ldr	r6, [r0, #0]
 8000712:	9d01      	ldr	r5, [sp, #4]
 8000714:	3301      	adds	r3, #1
 8000716:	4035      	ands	r5, r6
 8000718:	4646      	mov	r6, r8
 800071a:	40b4      	lsls	r4, r6
 800071c:	6005      	str	r5, [r0, #0]
 800071e:	6802      	ldr	r2, [r0, #0]
 8000720:	4314      	orrs	r4, r2
 8000722:	6004      	str	r4, [r0, #0]
 8000724:	4664      	mov	r4, ip
 8000726:	40b4      	lsls	r4, r6
 8000728:	68c5      	ldr	r5, [r0, #12]
 800072a:	43a5      	bics	r5, r4
 800072c:	60c5      	str	r5, [r0, #12]
 800072e:	79ca      	ldrb	r2, [r1, #7]
 8000730:	68c5      	ldr	r5, [r0, #12]
 8000732:	40b2      	lsls	r2, r6
 8000734:	432a      	orrs	r2, r5
 8000736:	60c2      	str	r2, [r0, #12]
 8000738:	2b10      	cmp	r3, #16
 800073a:	d1c2      	bne.n	80006c2 <GPIO_Init+0x22>
 800073c:	b003      	add	sp, #12
 800073e:	bcf0      	pop	{r4, r5, r6, r7}
 8000740:	46bb      	mov	fp, r7
 8000742:	46b2      	mov	sl, r6
 8000744:	46a9      	mov	r9, r5
 8000746:	46a0      	mov	r8, r4
 8000748:	bdf0      	pop	{r4, r5, r6, r7, pc}
 800074a:	46c0      	nop			; (mov r8, r8)

0800074c <capture_start>:
 800074c:	b5f0      	push	{r4, r5, r6, r7, lr}
 800074e:	46c6      	mov	lr, r8
 8000750:	b500      	push	{lr}
 8000752:	2580      	movs	r5, #128	; 0x80
 8000754:	b082      	sub	sp, #8
 8000756:	2490      	movs	r4, #144	; 0x90
 8000758:	466b      	mov	r3, sp
 800075a:	0006      	movs	r6, r0
 800075c:	2701      	movs	r7, #1
 800075e:	2000      	movs	r0, #0
 8000760:	05e4      	lsls	r4, r4, #23
 8000762:	00ad      	lsls	r5, r5, #2
 8000764:	9500      	str	r5, [sp, #0]
 8000766:	7198      	strb	r0, [r3, #6]
 8000768:	809f      	strh	r7, [r3, #4]
 800076a:	4680      	mov	r8, r0
 800076c:	4669      	mov	r1, sp
 800076e:	0020      	movs	r0, r4
 8000770:	f7ff ff96 	bl	80006a0 <GPIO_Init>
 8000774:	2302      	movs	r3, #2
 8000776:	61a3      	str	r3, [r4, #24]
 8000778:	46c0      	nop			; (mov r8, r8)
 800077a:	46c0      	nop			; (mov r8, r8)
 800077c:	46c0      	nop			; (mov r8, r8)
 800077e:	46c0      	nop			; (mov r8, r8)
 8000780:	46c0      	nop			; (mov r8, r8)
 8000782:	46c0      	nop			; (mov r8, r8)
 8000784:	46c0      	nop			; (mov r8, r8)
 8000786:	46c0      	nop			; (mov r8, r8)
 8000788:	61a5      	str	r5, [r4, #24]
 800078a:	46c0      	nop			; (mov r8, r8)
 800078c:	46c0      	nop			; (mov r8, r8)
 800078e:	46c0      	nop			; (mov r8, r8)
 8000790:	46c0      	nop			; (mov r8, r8)
 8000792:	46c0      	nop			; (mov r8, r8)
 8000794:	46c0      	nop			; (mov r8, r8)
 8000796:	46c0      	nop			; (mov r8, r8)
 8000798:	46c0      	nop			; (mov r8, r8)
 800079a:	8523      	strh	r3, [r4, #40]	; 0x28
 800079c:	46c0      	nop			; (mov r8, r8)
 800079e:	46c0      	nop			; (mov r8, r8)
 80007a0:	46c0      	nop			; (mov r8, r8)
 80007a2:	46c0      	nop			; (mov r8, r8)
 80007a4:	46c0      	nop			; (mov r8, r8)
 80007a6:	46c0      	nop			; (mov r8, r8)
 80007a8:	46c0      	nop			; (mov r8, r8)
 80007aa:	46c0      	nop			; (mov r8, r8)
 80007ac:	8525      	strh	r5, [r4, #40]	; 0x28
 80007ae:	4641      	mov	r1, r8
 80007b0:	9500      	str	r5, [sp, #0]
 80007b2:	466d      	mov	r5, sp
 80007b4:	0020      	movs	r0, r4
 80007b6:	80ab      	strh	r3, [r5, #4]
 80007b8:	71a9      	strb	r1, [r5, #6]
 80007ba:	4669      	mov	r1, sp
 80007bc:	f7ff ff70 	bl	80006a0 <GPIO_Init>
 80007c0:	2304      	movs	r3, #4
 80007c2:	4640      	mov	r0, r8
 80007c4:	4a0c      	ldr	r2, [pc, #48]	; (80007f8 <capture_start+0xac>)
 80007c6:	4d0d      	ldr	r5, [pc, #52]	; (80007fc <capture_start+0xb0>)
 80007c8:	6894      	ldr	r4, [r2, #8]
 80007ca:	431c      	orrs	r4, r3
 80007cc:	6094      	str	r4, [r2, #8]
 80007ce:	4a0c      	ldr	r2, [pc, #48]	; (8000800 <capture_start+0xb4>)
 80007d0:	6268      	str	r0, [r5, #36]	; 0x24
 80007d2:	6811      	ldr	r1, [r2, #0]
 80007d4:	4c0b      	ldr	r4, [pc, #44]	; (8000804 <capture_start+0xb8>)
 80007d6:	2001      	movs	r0, #1
 80007d8:	4021      	ands	r1, r4
 80007da:	6011      	str	r1, [r2, #0]
 80007dc:	60d6      	str	r6, [r2, #12]
 80007de:	2680      	movs	r6, #128	; 0x80
 80007e0:	6056      	str	r6, [r2, #4]
 80007e2:	6813      	ldr	r3, [r2, #0]
 80007e4:	433b      	orrs	r3, r7
 80007e6:	6013      	str	r3, [r2, #0]
 80007e8:	882f      	ldrh	r7, [r5, #0]
 80007ea:	4307      	orrs	r7, r0
 80007ec:	b2ba      	uxth	r2, r7
 80007ee:	802a      	strh	r2, [r5, #0]
 80007f0:	b002      	add	sp, #8
 80007f2:	bc80      	pop	{r7}
 80007f4:	46b8      	mov	r8, r7
 80007f6:	bdf0      	pop	{r4, r5, r6, r7, pc}
 80007f8:	40012400 	.word	0x40012400
 80007fc:	40012c00 	.word	0x40012c00
 8000800:	40020008 	.word	0x40020008
 8000804:	0000fffe 	.word	0x0000fffe

08000808 <meas_handler>:
 8000808:	b510      	push	{r4, lr}
 800080a:	4c19      	ldr	r4, [pc, #100]	; (8000870 <meas_handler+0x68>)
 800080c:	7822      	ldrb	r2, [r4, #0]
 800080e:	b2d3      	uxtb	r3, r2
 8000810:	2a02      	cmp	r2, #2
 8000812:	d018      	beq.n	8000846 <meas_handler+0x3e>
 8000814:	2b02      	cmp	r3, #2
 8000816:	d80e      	bhi.n	8000836 <meas_handler+0x2e>
 8000818:	2b00      	cmp	r3, #0
 800081a:	d01b      	beq.n	8000854 <meas_handler+0x4c>
 800081c:	2390      	movs	r3, #144	; 0x90
 800081e:	2118      	movs	r1, #24
 8000820:	05d8      	lsls	r0, r3, #23
 8000822:	8a82      	ldrh	r2, [r0, #20]
 8000824:	4b13      	ldr	r3, [pc, #76]	; (8000874 <meas_handler+0x6c>)
 8000826:	438a      	bics	r2, r1
 8000828:	8282      	strh	r2, [r0, #20]
 800082a:	6818      	ldr	r0, [r3, #0]
 800082c:	f7ff ff8e 	bl	800074c <capture_start>
 8000830:	2003      	movs	r0, #3
 8000832:	7020      	strb	r0, [r4, #0]
 8000834:	bd10      	pop	{r4, pc}
 8000836:	2b03      	cmp	r3, #3
 8000838:	d1fc      	bne.n	8000834 <meas_handler+0x2c>
 800083a:	2204      	movs	r2, #4
 800083c:	2300      	movs	r3, #0
 800083e:	7022      	strb	r2, [r4, #0]
 8000840:	4c0d      	ldr	r4, [pc, #52]	; (8000878 <meas_handler+0x70>)
 8000842:	7023      	strb	r3, [r4, #0]
 8000844:	e7f6      	b.n	8000834 <meas_handler+0x2c>
 8000846:	480d      	ldr	r0, [pc, #52]	; (800087c <meas_handler+0x74>)
 8000848:	6800      	ldr	r0, [r0, #0]
 800084a:	f7ff ff7f 	bl	800074c <capture_start>
 800084e:	2103      	movs	r1, #3
 8000850:	7021      	strb	r1, [r4, #0]
 8000852:	e7ef      	b.n	8000834 <meas_handler+0x2c>
 8000854:	2090      	movs	r0, #144	; 0x90
 8000856:	2118      	movs	r1, #24
 8000858:	05c2      	lsls	r2, r0, #23
 800085a:	8a93      	ldrh	r3, [r2, #20]
 800085c:	4807      	ldr	r0, [pc, #28]	; (800087c <meas_handler+0x74>)
 800085e:	430b      	orrs	r3, r1
 8000860:	8293      	strh	r3, [r2, #20]
 8000862:	6800      	ldr	r0, [r0, #0]
 8000864:	f7ff ff72 	bl	800074c <capture_start>
 8000868:	2201      	movs	r2, #1
 800086a:	7022      	strb	r2, [r4, #0]
 800086c:	e7e2      	b.n	8000834 <meas_handler+0x2c>
 800086e:	46c0      	nop			; (mov r8, r8)
 8000870:	20000456 	.word	0x20000456
 8000874:	20000028 	.word	0x20000028
 8000878:	20000459 	.word	0x20000459
 800087c:	2000002c 	.word	0x2000002c

08000880 <stop_hardware_capture>:
 8000880:	2101      	movs	r1, #1
 8000882:	2000      	movs	r0, #0
 8000884:	4b05      	ldr	r3, [pc, #20]	; (800089c <stop_hardware_capture+0x1c>)
 8000886:	881a      	ldrh	r2, [r3, #0]
 8000888:	438a      	bics	r2, r1
 800088a:	801a      	strh	r2, [r3, #0]
 800088c:	4a04      	ldr	r2, [pc, #16]	; (80008a0 <stop_hardware_capture+0x20>)
 800088e:	6258      	str	r0, [r3, #36]	; 0x24
 8000890:	6813      	ldr	r3, [r2, #0]
 8000892:	4904      	ldr	r1, [pc, #16]	; (80008a4 <stop_hardware_capture+0x24>)
 8000894:	400b      	ands	r3, r1
 8000896:	6013      	str	r3, [r2, #0]
 8000898:	4770      	bx	lr
 800089a:	46c0      	nop			; (mov r8, r8)
 800089c:	40012c00 	.word	0x40012c00
 80008a0:	40020008 	.word	0x40020008
 80008a4:	0000fffe 	.word	0x0000fffe

080008a8 <DMA1_Channel1_IRQHandler>:
 80008a8:	4b09      	ldr	r3, [pc, #36]	; (80008d0 <DMA1_Channel1_IRQHandler+0x28>)
 80008aa:	b510      	push	{r4, lr}
 80008ac:	6818      	ldr	r0, [r3, #0]
 80008ae:	0783      	lsls	r3, r0, #30
 80008b0:	d503      	bpl.n	80008ba <DMA1_Channel1_IRQHandler+0x12>
 80008b2:	f7ff ffe5 	bl	8000880 <stop_hardware_capture>
 80008b6:	f7ff ffa7 	bl	8000808 <meas_handler>
 80008ba:	2208      	movs	r2, #8
 80008bc:	4b04      	ldr	r3, [pc, #16]	; (80008d0 <DMA1_Channel1_IRQHandler+0x28>)
 80008be:	6819      	ldr	r1, [r3, #0]
 80008c0:	420a      	tst	r2, r1
 80008c2:	d000      	beq.n	80008c6 <DMA1_Channel1_IRQHandler+0x1e>
 80008c4:	605a      	str	r2, [r3, #4]
 80008c6:	2301      	movs	r3, #1
 80008c8:	4801      	ldr	r0, [pc, #4]	; (80008d0 <DMA1_Channel1_IRQHandler+0x28>)
 80008ca:	6043      	str	r3, [r0, #4]
 80008cc:	bd10      	pop	{r4, pc}
 80008ce:	46c0      	nop			; (mov r8, r8)
 80008d0:	40020000 	.word	0x40020000

080008d4 <SysTick_Handler>:
 80008d4:	4770      	bx	lr
 80008d6:	46c0      	nop			; (mov r8, r8)

080008d8 <NMI_Handler>:
 80008d8:	4770      	bx	lr
 80008da:	46c0      	nop			; (mov r8, r8)

080008dc <PendSV_Handler>:
 80008dc:	4770      	bx	lr
 80008de:	46c0      	nop			; (mov r8, r8)

080008e0 <SVC_Handler>:
 80008e0:	4770      	bx	lr
 80008e2:	46c0      	nop			; (mov r8, r8)

080008e4 <HardFault_Handler>:
 80008e4:	e7fe      	b.n	80008e4 <HardFault_Handler>
 80008e6:	46c0      	nop			; (mov r8, r8)

080008e8 <main>:
 80008e8:	2101      	movs	r1, #1
 80008ea:	b5f0      	push	{r4, r5, r6, r7, lr}
 80008ec:	4657      	mov	r7, sl
 80008ee:	464e      	mov	r6, r9
 80008f0:	4645      	mov	r5, r8
 80008f2:	46de      	mov	lr, fp
 80008f4:	4b15      	ldr	r3, [pc, #84]	; (800094c <main+0x64>)
 80008f6:	b5e0      	push	{r5, r6, r7, lr}
 80008f8:	681a      	ldr	r2, [r3, #0]
 80008fa:	4815      	ldr	r0, [pc, #84]	; (8000950 <main+0x68>)
 80008fc:	430a      	orrs	r2, r1
 80008fe:	601a      	str	r2, [r3, #0]
 8000900:	685c      	ldr	r4, [r3, #4]
 8000902:	4e14      	ldr	r6, [pc, #80]	; (8000954 <main+0x6c>)
 8000904:	4004      	ands	r4, r0
 8000906:	605c      	str	r4, [r3, #4]
 8000908:	681d      	ldr	r5, [r3, #0]
 800090a:	4a13      	ldr	r2, [pc, #76]	; (8000958 <main+0x70>)
 800090c:	4035      	ands	r5, r6
 800090e:	260f      	movs	r6, #15
 8000910:	601d      	str	r5, [r3, #0]
 8000912:	681f      	ldr	r7, [r3, #0]
 8000914:	4811      	ldr	r0, [pc, #68]	; (800095c <main+0x74>)
 8000916:	4017      	ands	r7, r2
 8000918:	601f      	str	r7, [r3, #0]
 800091a:	685c      	ldr	r4, [r3, #4]
 800091c:	4a10      	ldr	r2, [pc, #64]	; (8000960 <main+0x78>)
 800091e:	4004      	ands	r4, r0
 8000920:	605c      	str	r4, [r3, #4]
 8000922:	6add      	ldr	r5, [r3, #44]	; 0x2c
 8000924:	480f      	ldr	r0, [pc, #60]	; (8000964 <main+0x7c>)
 8000926:	43b5      	bics	r5, r6
 8000928:	62dd      	str	r5, [r3, #44]	; 0x2c
 800092a:	2500      	movs	r5, #0
 800092c:	6b1f      	ldr	r7, [r3, #48]	; 0x30
 800092e:	b0d3      	sub	sp, #332	; 0x14c
 8000930:	4017      	ands	r7, r2
 8000932:	631f      	str	r7, [r3, #48]	; 0x30
 8000934:	6b5c      	ldr	r4, [r3, #52]	; 0x34
 8000936:	27a0      	movs	r7, #160	; 0xa0
 8000938:	438c      	bics	r4, r1
 800093a:	635c      	str	r4, [r3, #52]	; 0x34
 800093c:	609d      	str	r5, [r3, #8]
 800093e:	7005      	strb	r5, [r0, #0]
 8000940:	7001      	strb	r1, [r0, #0]
 8000942:	2180      	movs	r1, #128	; 0x80
 8000944:	9504      	str	r5, [sp, #16]
 8000946:	028e      	lsls	r6, r1, #10
 8000948:	01fc      	lsls	r4, r7, #7
 800094a:	e00f      	b.n	800096c <main+0x84>
 800094c:	40021000 	.word	0x40021000
 8000950:	08ffb80c 	.word	0x08ffb80c
 8000954:	fef6ffff 	.word	0xfef6ffff
 8000958:	fffbffff 	.word	0xfffbffff
 800095c:	ffc0ffff 	.word	0xffc0ffff
 8000960:	fff0feac 	.word	0xfff0feac
 8000964:	40021002 	.word	0x40021002
 8000968:	2a00      	cmp	r2, #0
 800096a:	d107      	bne.n	800097c <main+0x94>
 800096c:	681a      	ldr	r2, [r3, #0]
 800096e:	9d04      	ldr	r5, [sp, #16]
 8000970:	4032      	ands	r2, r6
 8000972:	3501      	adds	r5, #1
 8000974:	9504      	str	r5, [sp, #16]
 8000976:	9804      	ldr	r0, [sp, #16]
 8000978:	42a0      	cmp	r0, r4
 800097a:	d1f5      	bne.n	8000968 <main+0x80>
 800097c:	4bf0      	ldr	r3, [pc, #960]	; (8000d40 <main+0x458>)
 800097e:	2101      	movs	r1, #1
 8000980:	681e      	ldr	r6, [r3, #0]
 8000982:	03b2      	lsls	r2, r6, #14
 8000984:	d500      	bpl.n	8000988 <main+0xa0>
 8000986:	e38f      	b.n	80010a8 <main+0x7c0>
 8000988:	4fee      	ldr	r7, [pc, #952]	; (8000d44 <main+0x45c>)
 800098a:	46b8      	mov	r8, r7
 800098c:	25fa      	movs	r5, #250	; 0xfa
 800098e:	a812      	add	r0, sp, #72	; 0x48
 8000990:	f7ff fdba 	bl	8000508 <RCC_GetClocksFreq>
 8000994:	9f13      	ldr	r7, [sp, #76]	; 0x4c
 8000996:	a808      	add	r0, sp, #32
 8000998:	9700      	str	r7, [sp, #0]
 800099a:	9703      	str	r7, [sp, #12]
 800099c:	f7ff fdb4 	bl	8000508 <RCC_GetClocksFreq>
 80009a0:	9809      	ldr	r0, [sp, #36]	; 0x24
 80009a2:	00a9      	lsls	r1, r5, #2
 80009a4:	f7ff fb8e 	bl	80000c4 <__udivsi3>
 80009a8:	2280      	movs	r2, #128	; 0x80
 80009aa:	3801      	subs	r0, #1
 80009ac:	0454      	lsls	r4, r2, #17
 80009ae:	42a0      	cmp	r0, r4
 80009b0:	d20d      	bcs.n	80009ce <main+0xe6>
 80009b2:	25c0      	movs	r5, #192	; 0xc0
 80009b4:	2400      	movs	r4, #0
 80009b6:	4ee4      	ldr	r6, [pc, #912]	; (8000d48 <main+0x460>)
 80009b8:	062a      	lsls	r2, r5, #24
 80009ba:	6070      	str	r0, [r6, #4]
 80009bc:	48e3      	ldr	r0, [pc, #908]	; (8000d4c <main+0x464>)
 80009be:	6a01      	ldr	r1, [r0, #32]
 80009c0:	020b      	lsls	r3, r1, #8
 80009c2:	0a1f      	lsrs	r7, r3, #8
 80009c4:	4317      	orrs	r7, r2
 80009c6:	6207      	str	r7, [r0, #32]
 80009c8:	60b4      	str	r4, [r6, #8]
 80009ca:	3407      	adds	r4, #7
 80009cc:	6034      	str	r4, [r6, #0]
 80009ce:	2501      	movs	r5, #1
 80009d0:	23c0      	movs	r3, #192	; 0xc0
 80009d2:	4edb      	ldr	r6, [pc, #876]	; (8000d40 <main+0x458>)
 80009d4:	2290      	movs	r2, #144	; 0x90
 80009d6:	69b0      	ldr	r0, [r6, #24]
 80009d8:	02df      	lsls	r7, r3, #11
 80009da:	4328      	orrs	r0, r5
 80009dc:	61b0      	str	r0, [r6, #24]
 80009de:	6971      	ldr	r1, [r6, #20]
 80009e0:	05d4      	lsls	r4, r2, #23
 80009e2:	430f      	orrs	r7, r1
 80009e4:	6177      	str	r7, [r6, #20]
 80009e6:	2702      	movs	r7, #2
 80009e8:	0020      	movs	r0, r4
 80009ea:	a906      	add	r1, sp, #24
 80009ec:	2680      	movs	r6, #128	; 0x80
 80009ee:	9706      	str	r7, [sp, #24]
 80009f0:	9507      	str	r5, [sp, #28]
 80009f2:	f7ff fe55 	bl	80006a0 <GPIO_Init>
 80009f6:	2344      	movs	r3, #68	; 0x44
 80009f8:	a902      	add	r1, sp, #8
 80009fa:	18ca      	adds	r2, r1, r3
 80009fc:	00b0      	lsls	r0, r6, #2
 80009fe:	2146      	movs	r1, #70	; 0x46
 8000a00:	9012      	str	r0, [sp, #72]	; 0x48
 8000a02:	2000      	movs	r0, #0
 8000a04:	ab02      	add	r3, sp, #8
 8000a06:	8015      	strh	r5, [r2, #0]
 8000a08:	185a      	adds	r2, r3, r1
 8000a0a:	7010      	strb	r0, [r2, #0]
 8000a0c:	a912      	add	r1, sp, #72	; 0x48
 8000a0e:	0020      	movs	r0, r4
 8000a10:	f7ff fe46 	bl	80006a0 <GPIO_Init>
 8000a14:	21f0      	movs	r1, #240	; 0xf0
 8000a16:	6a60      	ldr	r0, [r4, #36]	; 0x24
 8000a18:	aa02      	add	r2, sp, #8
 8000a1a:	4388      	bics	r0, r1
 8000a1c:	6260      	str	r0, [r4, #36]	; 0x24
 8000a1e:	6a63      	ldr	r3, [r4, #36]	; 0x24
 8000a20:	39d0      	subs	r1, #208	; 0xd0
 8000a22:	430b      	orrs	r3, r1
 8000a24:	6263      	str	r3, [r4, #36]	; 0x24
 8000a26:	9506      	str	r5, [sp, #24]
 8000a28:	2503      	movs	r5, #3
 8000a2a:	0020      	movs	r0, r4
 8000a2c:	a906      	add	r1, sp, #24
 8000a2e:	7515      	strb	r5, [r2, #20]
 8000a30:	f7ff fe36 	bl	80006a0 <GPIO_Init>
 8000a34:	2018      	movs	r0, #24
 8000a36:	2601      	movs	r6, #1
 8000a38:	9006      	str	r0, [sp, #24]
 8000a3a:	a902      	add	r1, sp, #8
 8000a3c:	0020      	movs	r0, r4
 8000a3e:	4cc4      	ldr	r4, [pc, #784]	; (8000d50 <main+0x468>)
 8000a40:	750e      	strb	r6, [r1, #20]
 8000a42:	a906      	add	r1, sp, #24
 8000a44:	f7ff fe2c 	bl	80006a0 <GPIO_Init>
 8000a48:	0020      	movs	r0, r4
 8000a4a:	a906      	add	r1, sp, #24
 8000a4c:	9706      	str	r7, [sp, #24]
 8000a4e:	af02      	add	r7, sp, #8
 8000a50:	753e      	strb	r6, [r7, #20]
 8000a52:	f7ff fe25 	bl	80006a0 <GPIO_Init>
 8000a56:	2302      	movs	r3, #2
 8000a58:	8aa6      	ldrh	r6, [r4, #20]
 8000a5a:	a812      	add	r0, sp, #72	; 0x48
 8000a5c:	431e      	orrs	r6, r3
 8000a5e:	82a6      	strh	r6, [r4, #20]
 8000a60:	f7ff fd52 	bl	8000508 <RCC_GetClocksFreq>
 8000a64:	9813      	ldr	r0, [sp, #76]	; 0x4c
 8000a66:	49bb      	ldr	r1, [pc, #748]	; (8000d54 <main+0x46c>)
 8000a68:	9000      	str	r0, [sp, #0]
 8000a6a:	f7ff fb2b 	bl	80000c4 <__udivsi3>
 8000a6e:	0145      	lsls	r5, r0, #5
 8000a70:	1a2a      	subs	r2, r5, r0
 8000a72:	0091      	lsls	r1, r2, #2
 8000a74:	180f      	adds	r7, r1, r0
 8000a76:	00fc      	lsls	r4, r7, #3
 8000a78:	9405      	str	r4, [sp, #20]
 8000a7a:	9e05      	ldr	r6, [sp, #20]
 8000a7c:	2e00      	cmp	r6, #0
 8000a7e:	d005      	beq.n	8000a8c <main+0x1a4>
 8000a80:	9b05      	ldr	r3, [sp, #20]
 8000a82:	3b01      	subs	r3, #1
 8000a84:	9305      	str	r3, [sp, #20]
 8000a86:	9805      	ldr	r0, [sp, #20]
 8000a88:	2800      	cmp	r0, #0
 8000a8a:	d1f9      	bne.n	8000a80 <main+0x198>
 8000a8c:	2280      	movs	r2, #128	; 0x80
 8000a8e:	2680      	movs	r6, #128	; 0x80
 8000a90:	4dab      	ldr	r5, [pc, #684]	; (8000d40 <main+0x458>)
 8000a92:	0297      	lsls	r7, r2, #10
 8000a94:	6969      	ldr	r1, [r5, #20]
 8000a96:	01f3      	lsls	r3, r6, #7
 8000a98:	430f      	orrs	r7, r1
 8000a9a:	2103      	movs	r1, #3
 8000a9c:	616f      	str	r7, [r5, #20]
 8000a9e:	69ac      	ldr	r4, [r5, #24]
 8000aa0:	4aad      	ldr	r2, [pc, #692]	; (8000d58 <main+0x470>)
 8000aa2:	4323      	orrs	r3, r4
 8000aa4:	61ab      	str	r3, [r5, #24]
 8000aa6:	6b28      	ldr	r0, [r5, #48]	; 0x30
 8000aa8:	2380      	movs	r3, #128	; 0x80
 8000aaa:	4388      	bics	r0, r1
 8000aac:	6328      	str	r0, [r5, #48]	; 0x30
 8000aae:	6b2f      	ldr	r7, [r5, #48]	; 0x30
 8000ab0:	4eaa      	ldr	r6, [pc, #680]	; (8000d5c <main+0x474>)
 8000ab2:	433a      	orrs	r2, r7
 8000ab4:	632a      	str	r2, [r5, #48]	; 0x30
 8000ab6:	2590      	movs	r5, #144	; 0x90
 8000ab8:	05e8      	lsls	r0, r5, #23
 8000aba:	6a04      	ldr	r4, [r0, #32]
 8000abc:	2204      	movs	r2, #4
 8000abe:	4034      	ands	r4, r6
 8000ac0:	2601      	movs	r6, #1
 8000ac2:	6204      	str	r4, [r0, #32]
 8000ac4:	6a01      	ldr	r1, [r0, #32]
 8000ac6:	005f      	lsls	r7, r3, #1
 8000ac8:	4da5      	ldr	r5, [pc, #660]	; (8000d60 <main+0x478>)
 8000aca:	430f      	orrs	r7, r1
 8000acc:	6207      	str	r7, [r0, #32]
 8000ace:	9507      	str	r5, [sp, #28]
 8000ad0:	2508      	movs	r5, #8
 8000ad2:	4ca4      	ldr	r4, [pc, #656]	; (8000d64 <main+0x47c>)
 8000ad4:	a906      	add	r1, sp, #24
 8000ad6:	9206      	str	r2, [sp, #24]
 8000ad8:	f7ff fde2 	bl	80006a0 <GPIO_Init>
 8000adc:	6820      	ldr	r0, [r4, #0]
 8000ade:	4ba2      	ldr	r3, [pc, #648]	; (8000d68 <main+0x480>)
 8000ae0:	43b0      	bics	r0, r6
 8000ae2:	6020      	str	r0, [r4, #0]
 8000ae4:	6861      	ldr	r1, [r4, #4]
 8000ae6:	4aa1      	ldr	r2, [pc, #644]	; (8000d6c <main+0x484>)
 8000ae8:	4019      	ands	r1, r3
 8000aea:	6061      	str	r1, [r4, #4]
 8000aec:	6827      	ldr	r7, [r4, #0]
 8000aee:	4ea0      	ldr	r6, [pc, #640]	; (8000d70 <main+0x488>)
 8000af0:	4017      	ands	r7, r2
 8000af2:	432f      	orrs	r7, r5
 8000af4:	6027      	str	r7, [r4, #0]
 8000af6:	68a0      	ldr	r0, [r4, #8]
 8000af8:	4030      	ands	r0, r6
 8000afa:	60a0      	str	r0, [r4, #8]
 8000afc:	a812      	add	r0, sp, #72	; 0x48
 8000afe:	f7ff fd03 	bl	8000508 <RCC_GetClocksFreq>
 8000b02:	6824      	ldr	r4, [r4, #0]
 8000b04:	9f18      	ldr	r7, [sp, #96]	; 0x60
 8000b06:	0423      	lsls	r3, r4, #16
 8000b08:	d500      	bpl.n	8000b0c <main+0x224>
 8000b0a:	007f      	lsls	r7, r7, #1
 8000b0c:	21e1      	movs	r1, #225	; 0xe1
 8000b0e:	0038      	movs	r0, r7
 8000b10:	0249      	lsls	r1, r1, #9
 8000b12:	f7ff fad7 	bl	80000c4 <__udivsi3>
 8000b16:	23e1      	movs	r3, #225	; 0xe1
 8000b18:	0005      	movs	r5, r0
 8000b1a:	0259      	lsls	r1, r3, #9
 8000b1c:	0038      	movs	r0, r7
 8000b1e:	f7ff fb57 	bl	80001d0 <__aeabi_uidivmod>
 8000b22:	22e1      	movs	r2, #225	; 0xe1
 8000b24:	2000      	movs	r0, #0
 8000b26:	0216      	lsls	r6, r2, #8
 8000b28:	42b1      	cmp	r1, r6
 8000b2a:	4140      	adcs	r0, r0
 8000b2c:	4f8d      	ldr	r7, [pc, #564]	; (8000d64 <main+0x47c>)
 8000b2e:	182c      	adds	r4, r5, r0
 8000b30:	6839      	ldr	r1, [r7, #0]
 8000b32:	040b      	lsls	r3, r1, #16
 8000b34:	d504      	bpl.n	8000b40 <main+0x258>
 8000b36:	4b8f      	ldr	r3, [pc, #572]	; (8000d74 <main+0x48c>)
 8000b38:	0725      	lsls	r5, r4, #28
 8000b3a:	0f68      	lsrs	r0, r5, #29
 8000b3c:	401c      	ands	r4, r3
 8000b3e:	4304      	orrs	r4, r0
 8000b40:	2780      	movs	r7, #128	; 0x80
 8000b42:	b2a2      	uxth	r2, r4
 8000b44:	4c87      	ldr	r4, [pc, #540]	; (8000d64 <main+0x47c>)
 8000b46:	2580      	movs	r5, #128	; 0x80
 8000b48:	81a2      	strh	r2, [r4, #12]
 8000b4a:	68a6      	ldr	r6, [r4, #8]
 8000b4c:	012d      	lsls	r5, r5, #4
 8000b4e:	433e      	orrs	r6, r7
 8000b50:	60a6      	str	r6, [r4, #8]
 8000b52:	2601      	movs	r6, #1
 8000b54:	6821      	ldr	r1, [r4, #0]
 8000b56:	4f88      	ldr	r7, [pc, #544]	; (8000d78 <main+0x490>)
 8000b58:	4331      	orrs	r1, r6
 8000b5a:	6021      	str	r1, [r4, #0]
 8000b5c:	4641      	mov	r1, r8
 8000b5e:	4c78      	ldr	r4, [pc, #480]	; (8000d40 <main+0x458>)
 8000b60:	69a0      	ldr	r0, [r4, #24]
 8000b62:	4328      	orrs	r0, r5
 8000b64:	61a0      	str	r0, [r4, #24]
 8000b66:	68e3      	ldr	r3, [r4, #12]
 8000b68:	432b      	orrs	r3, r5
 8000b6a:	60e3      	str	r3, [r4, #12]
 8000b6c:	68e2      	ldr	r2, [r4, #12]
 8000b6e:	403a      	ands	r2, r7
 8000b70:	60e2      	str	r2, [r4, #12]
 8000b72:	6808      	ldr	r0, [r1, #0]
 8000b74:	4981      	ldr	r1, [pc, #516]	; (8000d7c <main+0x494>)
 8000b76:	4683      	mov	fp, r0
 8000b78:	f7ff faa4 	bl	80000c4 <__udivsi3>
 8000b7c:	4b80      	ldr	r3, [pc, #512]	; (8000d80 <main+0x498>)
 8000b7e:	9001      	str	r0, [sp, #4]
 8000b80:	8819      	ldrh	r1, [r3, #0]
 8000b82:	1e47      	subs	r7, r0, #1
 8000b84:	4a7f      	ldr	r2, [pc, #508]	; (8000d84 <main+0x49c>)
 8000b86:	2000      	movs	r0, #0
 8000b88:	4011      	ands	r1, r2
 8000b8a:	8019      	strh	r1, [r3, #0]
 8000b8c:	2110      	movs	r1, #16
 8000b8e:	62df      	str	r7, [r3, #44]	; 0x2c
 8000b90:	8518      	strh	r0, [r3, #40]	; 0x28
 8000b92:	8618      	strh	r0, [r3, #48]	; 0x30
 8000b94:	829e      	strh	r6, [r3, #20]
 8000b96:	8c1f      	ldrh	r7, [r3, #32]
 8000b98:	438f      	bics	r7, r1
 8000b9a:	841f      	strh	r7, [r3, #32]
 8000b9c:	8c19      	ldrh	r1, [r3, #32]
 8000b9e:	889a      	ldrh	r2, [r3, #4]
 8000ba0:	8b1f      	ldrh	r7, [r3, #24]
 8000ba2:	4690      	mov	r8, r2
 8000ba4:	4a78      	ldr	r2, [pc, #480]	; (8000d88 <main+0x4a0>)
 8000ba6:	4691      	mov	r9, r2
 8000ba8:	4017      	ands	r7, r2
 8000baa:	22c0      	movs	r2, #192	; 0xc0
 8000bac:	01d2      	lsls	r2, r2, #7
 8000bae:	4692      	mov	sl, r2
 8000bb0:	4317      	orrs	r7, r2
 8000bb2:	22e0      	movs	r2, #224	; 0xe0
 8000bb4:	4391      	bics	r1, r2
 8000bb6:	000a      	movs	r2, r1
 8000bb8:	2130      	movs	r1, #48	; 0x30
 8000bba:	4311      	orrs	r1, r2
 8000bbc:	4642      	mov	r2, r8
 8000bbe:	9100      	str	r1, [sp, #0]
 8000bc0:	4972      	ldr	r1, [pc, #456]	; (8000d8c <main+0x4a4>)
 8000bc2:	400a      	ands	r2, r1
 8000bc4:	809a      	strh	r2, [r3, #4]
 8000bc6:	831f      	strh	r7, [r3, #24]
 8000bc8:	270a      	movs	r7, #10
 8000bca:	9a00      	ldr	r2, [sp, #0]
 8000bcc:	639f      	str	r7, [r3, #56]	; 0x38
 8000bce:	841a      	strh	r2, [r3, #32]
 8000bd0:	8c19      	ldrh	r1, [r3, #32]
 8000bd2:	4f6f      	ldr	r7, [pc, #444]	; (8000d90 <main+0x4a8>)
 8000bd4:	9a01      	ldr	r2, [sp, #4]
 8000bd6:	4039      	ands	r1, r7
 8000bd8:	8419      	strh	r1, [r3, #32]
 8000bda:	8c19      	ldrh	r1, [r3, #32]
 8000bdc:	889f      	ldrh	r7, [r3, #4]
 8000bde:	4688      	mov	r8, r1
 8000be0:	46bc      	mov	ip, r7
 8000be2:	464f      	mov	r7, r9
 8000be4:	8b99      	ldrh	r1, [r3, #28]
 8000be6:	3a0b      	subs	r2, #11
 8000be8:	4039      	ands	r1, r7
 8000bea:	4657      	mov	r7, sl
 8000bec:	430f      	orrs	r7, r1
 8000bee:	46b9      	mov	r9, r7
 8000bf0:	4647      	mov	r7, r8
 8000bf2:	4968      	ldr	r1, [pc, #416]	; (8000d94 <main+0x4ac>)
 8000bf4:	4039      	ands	r1, r7
 8000bf6:	27c0      	movs	r7, #192	; 0xc0
 8000bf8:	01bf      	lsls	r7, r7, #6
 8000bfa:	430f      	orrs	r7, r1
 8000bfc:	46ba      	mov	sl, r7
 8000bfe:	4667      	mov	r7, ip
 8000c00:	4965      	ldr	r1, [pc, #404]	; (8000d98 <main+0x4b0>)
 8000c02:	400f      	ands	r7, r1
 8000c04:	809f      	strh	r7, [r3, #4]
 8000c06:	464f      	mov	r7, r9
 8000c08:	839f      	strh	r7, [r3, #28]
 8000c0a:	641a      	str	r2, [r3, #64]	; 0x40
 8000c0c:	4652      	mov	r2, sl
 8000c0e:	841a      	strh	r2, [r3, #32]
 8000c10:	8b1a      	ldrh	r2, [r3, #24]
 8000c12:	4f59      	ldr	r7, [pc, #356]	; (8000d78 <main+0x490>)
 8000c14:	403a      	ands	r2, r7
 8000c16:	432a      	orrs	r2, r5
 8000c18:	831a      	strh	r2, [r3, #24]
 8000c1a:	8b9a      	ldrh	r2, [r3, #28]
 8000c1c:	4017      	ands	r7, r2
 8000c1e:	433d      	orrs	r5, r7
 8000c20:	839d      	strh	r5, [r3, #28]
 8000c22:	2580      	movs	r5, #128	; 0x80
 8000c24:	881f      	ldrh	r7, [r3, #0]
 8000c26:	432f      	orrs	r7, r5
 8000c28:	801f      	strh	r7, [r3, #0]
 8000c2a:	2780      	movs	r7, #128	; 0x80
 8000c2c:	3d3c      	subs	r5, #60	; 0x3c
 8000c2e:	5b5a      	ldrh	r2, [r3, r5]
 8000c30:	023f      	lsls	r7, r7, #8
 8000c32:	433a      	orrs	r2, r7
 8000c34:	535a      	strh	r2, [r3, r5]
 8000c36:	2380      	movs	r3, #128	; 0x80
 8000c38:	69a5      	ldr	r5, [r4, #24]
 8000c3a:	009a      	lsls	r2, r3, #2
 8000c3c:	432a      	orrs	r2, r5
 8000c3e:	2580      	movs	r5, #128	; 0x80
 8000c40:	01eb      	lsls	r3, r5, #7
 8000c42:	2580      	movs	r5, #128	; 0x80
 8000c44:	61a2      	str	r2, [r4, #24]
 8000c46:	6867      	ldr	r7, [r4, #4]
 8000c48:	4a54      	ldr	r2, [pc, #336]	; (8000d9c <main+0x4b4>)
 8000c4a:	4039      	ands	r1, r7
 8000c4c:	6061      	str	r1, [r4, #4]
 8000c4e:	6861      	ldr	r1, [r4, #4]
 8000c50:	430b      	orrs	r3, r1
 8000c52:	6063      	str	r3, [r4, #4]
 8000c54:	6b27      	ldr	r7, [r4, #48]	; 0x30
 8000c56:	006b      	lsls	r3, r5, #1
 8000c58:	4017      	ands	r7, r2
 8000c5a:	2288      	movs	r2, #136	; 0x88
 8000c5c:	6327      	str	r7, [r4, #48]	; 0x30
 8000c5e:	6b21      	ldr	r1, [r4, #48]	; 0x30
 8000c60:	00d5      	lsls	r5, r2, #3
 8000c62:	430b      	orrs	r3, r1
 8000c64:	6323      	str	r3, [r4, #48]	; 0x30
 8000c66:	4c4e      	ldr	r4, [pc, #312]	; (8000da0 <main+0x4b8>)
 8000c68:	494e      	ldr	r1, [pc, #312]	; (8000da4 <main+0x4bc>)
 8000c6a:	68e7      	ldr	r7, [r4, #12]
 8000c6c:	4039      	ands	r1, r7
 8000c6e:	2702      	movs	r7, #2
 8000c70:	430d      	orrs	r5, r1
 8000c72:	60e5      	str	r5, [r4, #12]
 8000c74:	6aa3      	ldr	r3, [r4, #40]	; 0x28
 8000c76:	4333      	orrs	r3, r6
 8000c78:	62a3      	str	r3, [r4, #40]	; 0x28
 8000c7a:	6160      	str	r0, [r4, #20]
 8000c7c:	68e0      	ldr	r0, [r4, #12]
 8000c7e:	43b8      	bics	r0, r7
 8000c80:	60e0      	str	r0, [r4, #12]
 8000c82:	68e1      	ldr	r1, [r4, #12]
 8000c84:	60e1      	str	r1, [r4, #12]
 8000c86:	68e2      	ldr	r2, [r4, #12]
 8000c88:	4332      	orrs	r2, r6
 8000c8a:	60e2      	str	r2, [r4, #12]
 8000c8c:	68a5      	ldr	r5, [r4, #8]
 8000c8e:	432e      	orrs	r6, r5
 8000c90:	60a6      	str	r6, [r4, #8]
 8000c92:	2601      	movs	r6, #1
 8000c94:	46b2      	mov	sl, r6
 8000c96:	4650      	mov	r0, sl
 8000c98:	6823      	ldr	r3, [r4, #0]
 8000c9a:	4218      	tst	r0, r3
 8000c9c:	d0fb      	beq.n	8000c96 <main+0x3ae>
 8000c9e:	2104      	movs	r1, #4
 8000ca0:	68a7      	ldr	r7, [r4, #8]
 8000ca2:	4d27      	ldr	r5, [pc, #156]	; (8000d40 <main+0x458>)
 8000ca4:	430f      	orrs	r7, r1
 8000ca6:	60a7      	str	r7, [r4, #8]
 8000ca8:	696c      	ldr	r4, [r5, #20]
 8000caa:	220f      	movs	r2, #15
 8000cac:	4304      	orrs	r4, r0
 8000cae:	616c      	str	r4, [r5, #20]
 8000cb0:	2400      	movs	r4, #0
 8000cb2:	4e3d      	ldr	r6, [pc, #244]	; (8000da8 <main+0x4c0>)
 8000cb4:	483d      	ldr	r0, [pc, #244]	; (8000dac <main+0x4c4>)
 8000cb6:	6833      	ldr	r3, [r6, #0]
 8000cb8:	4f3d      	ldr	r7, [pc, #244]	; (8000db0 <main+0x4c8>)
 8000cba:	4003      	ands	r3, r0
 8000cbc:	6033      	str	r3, [r6, #0]
 8000cbe:	6034      	str	r4, [r6, #0]
 8000cc0:	6074      	str	r4, [r6, #4]
 8000cc2:	60b4      	str	r4, [r6, #8]
 8000cc4:	60f4      	str	r4, [r6, #12]
 8000cc6:	6879      	ldr	r1, [r7, #4]
 8000cc8:	483a      	ldr	r0, [pc, #232]	; (8000db4 <main+0x4cc>)
 8000cca:	4311      	orrs	r1, r2
 8000ccc:	6079      	str	r1, [r7, #4]
 8000cce:	2180      	movs	r1, #128	; 0x80
 8000cd0:	2280      	movs	r2, #128	; 0x80
 8000cd2:	9012      	str	r0, [sp, #72]	; 0x48
 8000cd4:	20c0      	movs	r0, #192	; 0xc0
 8000cd6:	46b8      	mov	r8, r7
 8000cd8:	4f37      	ldr	r7, [pc, #220]	; (8000db8 <main+0x4d0>)
 8000cda:	4689      	mov	r9, r1
 8000cdc:	9115      	str	r1, [sp, #84]	; 0x54
 8000cde:	9117      	str	r1, [sp, #92]	; 0x5c
 8000ce0:	3180      	adds	r1, #128	; 0x80
 8000ce2:	00d3      	lsls	r3, r2, #3
 8000ce4:	9713      	str	r7, [sp, #76]	; 0x4c
 8000ce6:	9118      	str	r1, [sp, #96]	; 0x60
 8000ce8:	0187      	lsls	r7, r0, #6
 8000cea:	a912      	add	r1, sp, #72	; 0x48
 8000cec:	0030      	movs	r0, r6
 8000cee:	9414      	str	r4, [sp, #80]	; 0x50
 8000cf0:	9416      	str	r4, [sp, #88]	; 0x58
 8000cf2:	9319      	str	r3, [sp, #100]	; 0x64
 8000cf4:	941a      	str	r4, [sp, #104]	; 0x68
 8000cf6:	971b      	str	r7, [sp, #108]	; 0x6c
 8000cf8:	941c      	str	r4, [sp, #112]	; 0x70
 8000cfa:	f7ff fbe7 	bl	80004cc <DMA_Init>
 8000cfe:	4653      	mov	r3, sl
 8000d00:	6832      	ldr	r2, [r6, #0]
 8000d02:	4f2e      	ldr	r7, [pc, #184]	; (8000dbc <main+0x4d4>)
 8000d04:	431a      	orrs	r2, r3
 8000d06:	0038      	movs	r0, r7
 8000d08:	6032      	str	r2, [r6, #0]
 8000d0a:	a912      	add	r1, sp, #72	; 0x48
 8000d0c:	f7ff fbde 	bl	80004cc <DMA_Init>
 8000d10:	23c2      	movs	r3, #194	; 0xc2
 8000d12:	2202      	movs	r2, #2
 8000d14:	0099      	lsls	r1, r3, #2
 8000d16:	2380      	movs	r3, #128	; 0x80
 8000d18:	6830      	ldr	r0, [r6, #0]
 8000d1a:	4310      	orrs	r0, r2
 8000d1c:	6030      	str	r0, [r6, #0]
 8000d1e:	4e28      	ldr	r6, [pc, #160]	; (8000dc0 <main+0x4d8>)
 8000d20:	4a28      	ldr	r2, [pc, #160]	; (8000dc4 <main+0x4dc>)
 8000d22:	5870      	ldr	r0, [r6, r1]
 8000d24:	4010      	ands	r0, r2
 8000d26:	01da      	lsls	r2, r3, #7
 8000d28:	4302      	orrs	r2, r0
 8000d2a:	5072      	str	r2, [r6, r1]
 8000d2c:	2180      	movs	r1, #128	; 0x80
 8000d2e:	4652      	mov	r2, sl
 8000d30:	0088      	lsls	r0, r1, #2
 8000d32:	6030      	str	r0, [r6, #0]
 8000d34:	696b      	ldr	r3, [r5, #20]
 8000d36:	481d      	ldr	r0, [pc, #116]	; (8000dac <main+0x4c4>)
 8000d38:	4313      	orrs	r3, r2
 8000d3a:	616b      	str	r3, [r5, #20]
 8000d3c:	6839      	ldr	r1, [r7, #0]
 8000d3e:	e043      	b.n	8000dc8 <main+0x4e0>
 8000d40:	40021000 	.word	0x40021000
 8000d44:	20000024 	.word	0x20000024
 8000d48:	e000e010 	.word	0xe000e010
 8000d4c:	e000ed00 	.word	0xe000ed00
 8000d50:	48000400 	.word	0x48000400
 8000d54:	00002710 	.word	0x00002710
 8000d58:	10000001 	.word	0x10000001
 8000d5c:	fffff0ff 	.word	0xfffff0ff
 8000d60:	00000302 	.word	0x00000302
 8000d64:	40013800 	.word	0x40013800
 8000d68:	ffffcfff 	.word	0xffffcfff
 8000d6c:	ffffe9f3 	.word	0xffffe9f3
 8000d70:	fffffcff 	.word	0xfffffcff
 8000d74:	0000fff0 	.word	0x0000fff0
 8000d78:	fffff7ff 	.word	0xfffff7ff
 8000d7c:	00075300 	.word	0x00075300
 8000d80:	40012c00 	.word	0x40012c00
 8000d84:	fffffc8f 	.word	0xfffffc8f
 8000d88:	ffff8cff 	.word	0xffff8cff
 8000d8c:	fffff3ff 	.word	0xfffff3ff
 8000d90:	ffffefff 	.word	0xffffefff
 8000d94:	ffffdfff 	.word	0xffffdfff
 8000d98:	ffffbfff 	.word	0xffffbfff
 8000d9c:	fffffeff 	.word	0xfffffeff
 8000da0:	40012400 	.word	0x40012400
 8000da4:	ffffd203 	.word	0xffffd203
 8000da8:	40020008 	.word	0x40020008
 8000dac:	0000fffe 	.word	0x0000fffe
 8000db0:	40020000 	.word	0x40020000
 8000db4:	40012440 	.word	0x40012440
 8000db8:	20000054 	.word	0x20000054
 8000dbc:	4002001c 	.word	0x4002001c
 8000dc0:	e000e100 	.word	0xe000e100
 8000dc4:	ffff00ff 	.word	0xffff00ff
 8000dc8:	4642      	mov	r2, r8
 8000dca:	4001      	ands	r1, r0
 8000dcc:	6039      	str	r1, [r7, #0]
 8000dce:	21f0      	movs	r1, #240	; 0xf0
 8000dd0:	603c      	str	r4, [r7, #0]
 8000dd2:	607c      	str	r4, [r7, #4]
 8000dd4:	60bc      	str	r4, [r7, #8]
 8000dd6:	60fc      	str	r4, [r7, #12]
 8000dd8:	6853      	ldr	r3, [r2, #4]
 8000dda:	48d5      	ldr	r0, [pc, #852]	; (8001130 <main+0x848>)
 8000ddc:	430b      	orrs	r3, r1
 8000dde:	6053      	str	r3, [r2, #4]
 8000de0:	2280      	movs	r2, #128	; 0x80
 8000de2:	9012      	str	r0, [sp, #72]	; 0x48
 8000de4:	0593      	lsls	r3, r2, #22
 8000de6:	2010      	movs	r0, #16
 8000de8:	9313      	str	r3, [sp, #76]	; 0x4c
 8000dea:	464a      	mov	r2, r9
 8000dec:	2380      	movs	r3, #128	; 0x80
 8000dee:	9014      	str	r0, [sp, #80]	; 0x50
 8000df0:	3806      	subs	r0, #6
 8000df2:	9015      	str	r0, [sp, #84]	; 0x54
 8000df4:	9217      	str	r2, [sp, #92]	; 0x5c
 8000df6:	0158      	lsls	r0, r3, #5
 8000df8:	4642      	mov	r2, r8
 8000dfa:	23a8      	movs	r3, #168	; 0xa8
 8000dfc:	9416      	str	r4, [sp, #88]	; 0x58
 8000dfe:	9418      	str	r4, [sp, #96]	; 0x60
 8000e00:	9419      	str	r4, [sp, #100]	; 0x64
 8000e02:	941a      	str	r4, [sp, #104]	; 0x68
 8000e04:	901b      	str	r0, [sp, #108]	; 0x6c
 8000e06:	941c      	str	r4, [sp, #112]	; 0x70
 8000e08:	58d2      	ldr	r2, [r2, r3]
 8000e0a:	4640      	mov	r0, r8
 8000e0c:	438a      	bics	r2, r1
 8000e0e:	4641      	mov	r1, r8
 8000e10:	50ca      	str	r2, [r1, r3]
 8000e12:	58ca      	ldr	r2, [r1, r3]
 8000e14:	4649      	mov	r1, r9
 8000e16:	430a      	orrs	r2, r1
 8000e18:	50c2      	str	r2, [r0, r3]
 8000e1a:	a912      	add	r1, sp, #72	; 0x48
 8000e1c:	0038      	movs	r0, r7
 8000e1e:	f7ff fb55 	bl	80004cc <DMA_Init>
 8000e22:	2380      	movs	r3, #128	; 0x80
 8000e24:	69af      	ldr	r7, [r5, #24]
 8000e26:	02da      	lsls	r2, r3, #11
 8000e28:	433a      	orrs	r2, r7
 8000e2a:	2790      	movs	r7, #144	; 0x90
 8000e2c:	4648      	mov	r0, r9
 8000e2e:	49c1      	ldr	r1, [pc, #772]	; (8001134 <main+0x84c>)
 8000e30:	05ff      	lsls	r7, r7, #23
 8000e32:	61aa      	str	r2, [r5, #24]
 8000e34:	9012      	str	r0, [sp, #72]	; 0x48
 8000e36:	9113      	str	r1, [sp, #76]	; 0x4c
 8000e38:	0038      	movs	r0, r7
 8000e3a:	a912      	add	r1, sp, #72	; 0x48
 8000e3c:	f7ff fc30 	bl	80006a0 <GPIO_Init>
 8000e40:	6a3b      	ldr	r3, [r7, #32]
 8000e42:	011a      	lsls	r2, r3, #4
 8000e44:	23a0      	movs	r3, #160	; 0xa0
 8000e46:	0910      	lsrs	r0, r2, #4
 8000e48:	6238      	str	r0, [r7, #32]
 8000e4a:	6a39      	ldr	r1, [r7, #32]
 8000e4c:	05da      	lsls	r2, r3, #23
 8000e4e:	430a      	orrs	r2, r1
 8000e50:	623a      	str	r2, [r7, #32]
 8000e52:	4658      	mov	r0, fp
 8000e54:	49b8      	ldr	r1, [pc, #736]	; (8001138 <main+0x850>)
 8000e56:	f7ff f935 	bl	80000c4 <__udivsi3>
 8000e5a:	4bb8      	ldr	r3, [pc, #736]	; (800113c <main+0x854>)
 8000e5c:	3801      	subs	r0, #1
 8000e5e:	b287      	uxth	r7, r0
 8000e60:	49b7      	ldr	r1, [pc, #732]	; (8001140 <main+0x858>)
 8000e62:	8818      	ldrh	r0, [r3, #0]
 8000e64:	4ab7      	ldr	r2, [pc, #732]	; (8001144 <main+0x85c>)
 8000e66:	4008      	ands	r0, r1
 8000e68:	8018      	strh	r0, [r3, #0]
 8000e6a:	4650      	mov	r0, sl
 8000e6c:	62da      	str	r2, [r3, #44]	; 0x2c
 8000e6e:	46b9      	mov	r9, r7
 8000e70:	851f      	strh	r7, [r3, #40]	; 0x28
 8000e72:	27f3      	movs	r7, #243	; 0xf3
 8000e74:	861c      	strh	r4, [r3, #48]	; 0x30
 8000e76:	8298      	strh	r0, [r3, #20]
 8000e78:	8c19      	ldrh	r1, [r3, #32]
 8000e7a:	4694      	mov	ip, r2
 8000e7c:	4381      	bics	r1, r0
 8000e7e:	8419      	strh	r1, [r3, #32]
 8000e80:	8b19      	ldrh	r1, [r3, #24]
 8000e82:	8c1a      	ldrh	r2, [r3, #32]
 8000e84:	43b9      	bics	r1, r7
 8000e86:	3f02      	subs	r7, #2
 8000e88:	4339      	orrs	r1, r7
 8000e8a:	8319      	strh	r1, [r3, #24]
 8000e8c:	210c      	movs	r1, #12
 8000e8e:	3fe7      	subs	r7, #231	; 0xe7
 8000e90:	0038      	movs	r0, r7
 8000e92:	43ba      	bics	r2, r7
 8000e94:	3f07      	subs	r7, #7
 8000e96:	433a      	orrs	r2, r7
 8000e98:	841a      	strh	r2, [r3, #32]
 8000e9a:	8b1a      	ldrh	r2, [r3, #24]
 8000e9c:	438a      	bics	r2, r1
 8000e9e:	831a      	strh	r2, [r3, #24]
 8000ea0:	8b1f      	ldrh	r7, [r3, #24]
 8000ea2:	390a      	subs	r1, #10
 8000ea4:	b2ba      	uxth	r2, r7
 8000ea6:	2703      	movs	r7, #3
 8000ea8:	831a      	strh	r2, [r3, #24]
 8000eaa:	427a      	negs	r2, r7
 8000eac:	821a      	strh	r2, [r3, #16]
 8000eae:	22c5      	movs	r2, #197	; 0xc5
 8000eb0:	899f      	ldrh	r7, [r3, #12]
 8000eb2:	0092      	lsls	r2, r2, #2
 8000eb4:	430f      	orrs	r7, r1
 8000eb6:	b2b9      	uxth	r1, r7
 8000eb8:	8199      	strh	r1, [r3, #12]
 8000eba:	58b7      	ldr	r7, [r6, r2]
 8000ebc:	0039      	movs	r1, r7
 8000ebe:	4fa2      	ldr	r7, [pc, #648]	; (8001148 <main+0x860>)
 8000ec0:	4039      	ands	r1, r7
 8000ec2:	27c0      	movs	r7, #192	; 0xc0
 8000ec4:	043f      	lsls	r7, r7, #16
 8000ec6:	430f      	orrs	r7, r1
 8000ec8:	2180      	movs	r1, #128	; 0x80
 8000eca:	50b7      	str	r7, [r6, r2]
 8000ecc:	03cf      	lsls	r7, r1, #15
 8000ece:	2180      	movs	r1, #128	; 0x80
 8000ed0:	468b      	mov	fp, r1
 8000ed2:	4659      	mov	r1, fp
 8000ed4:	6037      	str	r7, [r6, #0]
 8000ed6:	881f      	ldrh	r7, [r3, #0]
 8000ed8:	430f      	orrs	r7, r1
 8000eda:	2101      	movs	r1, #1
 8000edc:	b2bf      	uxth	r7, r7
 8000ede:	801f      	strh	r7, [r3, #0]
 8000ee0:	881f      	ldrh	r7, [r3, #0]
 8000ee2:	430f      	orrs	r7, r1
 8000ee4:	801f      	strh	r7, [r3, #0]
 8000ee6:	2380      	movs	r3, #128	; 0x80
 8000ee8:	69af      	ldr	r7, [r5, #24]
 8000eea:	029b      	lsls	r3, r3, #10
 8000eec:	431f      	orrs	r7, r3
 8000eee:	61af      	str	r7, [r5, #24]
 8000ef0:	68ef      	ldr	r7, [r5, #12]
 8000ef2:	3172      	adds	r1, #114	; 0x72
 8000ef4:	433b      	orrs	r3, r7
 8000ef6:	60eb      	str	r3, [r5, #12]
 8000ef8:	4f94      	ldr	r7, [pc, #592]	; (800114c <main+0x864>)
 8000efa:	68eb      	ldr	r3, [r5, #12]
 8000efc:	403b      	ands	r3, r7
 8000efe:	60eb      	str	r3, [r5, #12]
 8000f00:	4b93      	ldr	r3, [pc, #588]	; (8001150 <main+0x868>)
 8000f02:	4f8f      	ldr	r7, [pc, #572]	; (8001140 <main+0x858>)
 8000f04:	881d      	ldrh	r5, [r3, #0]
 8000f06:	403d      	ands	r5, r7
 8000f08:	801d      	strh	r5, [r3, #0]
 8000f0a:	464f      	mov	r7, r9
 8000f0c:	4665      	mov	r5, ip
 8000f0e:	62dd      	str	r5, [r3, #44]	; 0x2c
 8000f10:	851f      	strh	r7, [r3, #40]	; 0x28
 8000f12:	861c      	strh	r4, [r3, #48]	; 0x30
 8000f14:	4654      	mov	r4, sl
 8000f16:	829c      	strh	r4, [r3, #20]
 8000f18:	8c1f      	ldrh	r7, [r3, #32]
 8000f1a:	43a7      	bics	r7, r4
 8000f1c:	841f      	strh	r7, [r3, #32]
 8000f1e:	8c1c      	ldrh	r4, [r3, #32]
 8000f20:	889d      	ldrh	r5, [r3, #4]
 8000f22:	8b1f      	ldrh	r7, [r3, #24]
 8000f24:	4384      	bics	r4, r0
 8000f26:	438f      	bics	r7, r1
 8000f28:	3044      	adds	r0, #68	; 0x44
 8000f2a:	a902      	add	r1, sp, #8
 8000f2c:	1808      	adds	r0, r1, r0
 8000f2e:	8801      	ldrh	r1, [r0, #0]
 8000f30:	a802      	add	r0, sp, #8
 8000f32:	430c      	orrs	r4, r1
 8000f34:	2104      	movs	r1, #4
 8000f36:	438c      	bics	r4, r1
 8000f38:	3902      	subs	r1, #2
 8000f3a:	430c      	orrs	r4, r1
 8000f3c:	3142      	adds	r1, #66	; 0x42
 8000f3e:	1841      	adds	r1, r0, r1
 8000f40:	8808      	ldrh	r0, [r1, #0]
 8000f42:	b2a4      	uxth	r4, r4
 8000f44:	4304      	orrs	r4, r0
 8000f46:	2050      	movs	r0, #80	; 0x50
 8000f48:	497d      	ldr	r1, [pc, #500]	; (8001140 <main+0x858>)
 8000f4a:	4029      	ands	r1, r5
 8000f4c:	ad02      	add	r5, sp, #8
 8000f4e:	468a      	mov	sl, r1
 8000f50:	1829      	adds	r1, r5, r0
 8000f52:	2052      	movs	r0, #82	; 0x52
 8000f54:	880d      	ldrh	r5, [r1, #0]
 8000f56:	a902      	add	r1, sp, #8
 8000f58:	1809      	adds	r1, r1, r0
 8000f5a:	8808      	ldrh	r0, [r1, #0]
 8000f5c:	4305      	orrs	r5, r0
 8000f5e:	4650      	mov	r0, sl
 8000f60:	4328      	orrs	r0, r5
 8000f62:	8098      	strh	r0, [r3, #4]
 8000f64:	831f      	strh	r7, [r3, #24]
 8000f66:	2764      	movs	r7, #100	; 0x64
 8000f68:	635f      	str	r7, [r3, #52]	; 0x34
 8000f6a:	841c      	strh	r4, [r3, #32]
 8000f6c:	465c      	mov	r4, fp
 8000f6e:	881d      	ldrh	r5, [r3, #0]
 8000f70:	2708      	movs	r7, #8
 8000f72:	4325      	orrs	r5, r4
 8000f74:	b2a9      	uxth	r1, r5
 8000f76:	2503      	movs	r5, #3
 8000f78:	426c      	negs	r4, r5
 8000f7a:	25c0      	movs	r5, #192	; 0xc0
 8000f7c:	8019      	strh	r1, [r3, #0]
 8000f7e:	8b18      	ldrh	r0, [r3, #24]
 8000f80:	43b8      	bics	r0, r7
 8000f82:	4338      	orrs	r0, r7
 8000f84:	8318      	strh	r0, [r3, #24]
 8000f86:	821c      	strh	r4, [r3, #16]
 8000f88:	8999      	ldrh	r1, [r3, #12]
 8000f8a:	3405      	adds	r4, #5
 8000f8c:	430c      	orrs	r4, r1
 8000f8e:	b2a0      	uxth	r0, r4
 8000f90:	8198      	strh	r0, [r3, #12]
 8000f92:	58b7      	ldr	r7, [r6, r2]
 8000f94:	4b6f      	ldr	r3, [pc, #444]	; (8001154 <main+0x86c>)
 8000f96:	022c      	lsls	r4, r5, #8
 8000f98:	401f      	ands	r7, r3
 8000f9a:	433c      	orrs	r4, r7
 8000f9c:	50b4      	str	r4, [r6, r2]
 8000f9e:	2280      	movs	r2, #128	; 0x80
 8000fa0:	2300      	movs	r3, #0
 8000fa2:	0391      	lsls	r1, r2, #14
 8000fa4:	6031      	str	r1, [r6, #0]
 8000fa6:	4e6c      	ldr	r6, [pc, #432]	; (8001158 <main+0x870>)
 8000fa8:	4699      	mov	r9, r3
 8000faa:	7830      	ldrb	r0, [r6, #0]
 8000fac:	4f6b      	ldr	r7, [pc, #428]	; (800115c <main+0x874>)
 8000fae:	4683      	mov	fp, r0
 8000fb0:	46b8      	mov	r8, r7
 8000fb2:	4645      	mov	r5, r8
 8000fb4:	4a6a      	ldr	r2, [pc, #424]	; (8001160 <main+0x878>)
 8000fb6:	882c      	ldrh	r4, [r5, #0]
 8000fb8:	7811      	ldrb	r1, [r2, #0]
 8000fba:	b2a4      	uxth	r4, r4
 8000fbc:	2904      	cmp	r1, #4
 8000fbe:	d1f8      	bne.n	8000fb2 <main+0x6ca>
 8000fc0:	4e68      	ldr	r6, [pc, #416]	; (8001164 <main+0x87c>)
 8000fc2:	7830      	ldrb	r0, [r6, #0]
 8000fc4:	2800      	cmp	r0, #0
 8000fc6:	d1f4      	bne.n	8000fb2 <main+0x6ca>
 8000fc8:	3069      	adds	r0, #105	; 0x69
 8000fca:	30ff      	adds	r0, #255	; 0xff
 8000fcc:	4284      	cmp	r4, r0
 8000fce:	d25b      	bcs.n	8001088 <main+0x7a0>
 8000fd0:	4f65      	ldr	r7, [pc, #404]	; (8001168 <main+0x880>)
 8000fd2:	4d66      	ldr	r5, [pc, #408]	; (800116c <main+0x884>)
 8000fd4:	683b      	ldr	r3, [r7, #0]
 8000fd6:	682a      	ldr	r2, [r5, #0]
 8000fd8:	001f      	movs	r7, r3
 8000fda:	4692      	mov	sl, r2
 8000fdc:	2000      	movs	r0, #0
 8000fde:	2200      	movs	r2, #0
 8000fe0:	2500      	movs	r5, #0
 8000fe2:	2100      	movs	r1, #0
 8000fe4:	46a4      	mov	ip, r4
 8000fe6:	ae12      	add	r6, sp, #72	; 0x48
 8000fe8:	e00b      	b.n	8001002 <main+0x71a>
 8000fea:	1b1c      	subs	r4, r3, r4
 8000fec:	b2a3      	uxth	r3, r4
 8000fee:	8033      	strh	r3, [r6, #0]
 8000ff0:	429d      	cmp	r5, r3
 8000ff2:	d201      	bcs.n	8000ff8 <main+0x710>
 8000ff4:	001d      	movs	r5, r3
 8000ff6:	000a      	movs	r2, r1
 8000ff8:	3101      	adds	r1, #1
 8000ffa:	3602      	adds	r6, #2
 8000ffc:	3002      	adds	r0, #2
 8000ffe:	2980      	cmp	r1, #128	; 0x80
 8001000:	d00b      	beq.n	800101a <main+0x732>
 8001002:	4654      	mov	r4, sl
 8001004:	5a3b      	ldrh	r3, [r7, r0]
 8001006:	5a24      	ldrh	r4, [r4, r0]
 8001008:	42a3      	cmp	r3, r4
 800100a:	d8ee      	bhi.n	8000fea <main+0x702>
 800100c:	464b      	mov	r3, r9
 800100e:	3101      	adds	r1, #1
 8001010:	8033      	strh	r3, [r6, #0]
 8001012:	3002      	adds	r0, #2
 8001014:	3602      	adds	r6, #2
 8001016:	2980      	cmp	r1, #128	; 0x80
 8001018:	d1f3      	bne.n	8001002 <main+0x71a>
 800101a:	4667      	mov	r7, ip
 800101c:	2a13      	cmp	r2, #19
 800101e:	d837      	bhi.n	8001090 <main+0x7a8>
 8001020:	2403      	movs	r4, #3
 8001022:	2003      	movs	r0, #3
 8001024:	3904      	subs	r1, #4
 8001026:	4e52      	ldr	r6, [pc, #328]	; (8001170 <main+0x888>)
 8001028:	7030      	strb	r0, [r6, #0]
 800102a:	42a2      	cmp	r2, r4
 800102c:	d200      	bcs.n	8001030 <main+0x748>
 800102e:	0022      	movs	r2, r4
 8001030:	428a      	cmp	r2, r1
 8001032:	d900      	bls.n	8001036 <main+0x74e>
 8001034:	000a      	movs	r2, r1
 8001036:	1913      	adds	r3, r2, r4
 8001038:	469c      	mov	ip, r3
 800103a:	1b13      	subs	r3, r2, r4
 800103c:	4563      	cmp	r3, ip
 800103e:	d231      	bcs.n	80010a4 <main+0x7bc>
 8001040:	a912      	add	r1, sp, #72	; 0x48
 8001042:	468a      	mov	sl, r1
 8001044:	4664      	mov	r4, ip
 8001046:	2100      	movs	r1, #0
 8001048:	2000      	movs	r0, #0
 800104a:	46bc      	mov	ip, r7
 800104c:	005a      	lsls	r2, r3, #1
 800104e:	4452      	add	r2, sl
 8001050:	001f      	movs	r7, r3
 8001052:	8816      	ldrh	r6, [r2, #0]
 8001054:	3301      	adds	r3, #1
 8001056:	4377      	muls	r7, r6
 8001058:	1989      	adds	r1, r1, r6
 800105a:	19c0      	adds	r0, r0, r7
 800105c:	3202      	adds	r2, #2
 800105e:	429c      	cmp	r4, r3
 8001060:	d8f6      	bhi.n	8001050 <main+0x768>
 8001062:	4667      	mov	r7, ip
 8001064:	2300      	movs	r3, #0
 8001066:	2900      	cmp	r1, #0
 8001068:	d004      	beq.n	8001074 <main+0x78c>
 800106a:	3364      	adds	r3, #100	; 0x64
 800106c:	4358      	muls	r0, r3
 800106e:	f7ff f829 	bl	80000c4 <__udivsi3>
 8001072:	b283      	uxth	r3, r0
 8001074:	2d31      	cmp	r5, #49	; 0x31
 8001076:	d800      	bhi.n	800107a <main+0x792>
 8001078:	2301      	movs	r3, #1
 800107a:	465d      	mov	r5, fp
 800107c:	3704      	adds	r7, #4
 800107e:	0078      	lsls	r0, r7, #1
 8001080:	2d00      	cmp	r5, #0
 8001082:	d109      	bne.n	8001098 <main+0x7b0>
 8001084:	493b      	ldr	r1, [pc, #236]	; (8001174 <main+0x88c>)
 8001086:	520b      	strh	r3, [r1, r0]
 8001088:	2601      	movs	r6, #1
 800108a:	4c36      	ldr	r4, [pc, #216]	; (8001164 <main+0x87c>)
 800108c:	7026      	strb	r6, [r4, #0]
 800108e:	e790      	b.n	8000fb2 <main+0x6ca>
 8001090:	2177      	movs	r1, #119	; 0x77
 8001092:	2408      	movs	r4, #8
 8001094:	2008      	movs	r0, #8
 8001096:	e7c6      	b.n	8001026 <main+0x73e>
 8001098:	2601      	movs	r6, #1
 800109a:	4a37      	ldr	r2, [pc, #220]	; (8001178 <main+0x890>)
 800109c:	4c31      	ldr	r4, [pc, #196]	; (8001164 <main+0x87c>)
 800109e:	5213      	strh	r3, [r2, r0]
 80010a0:	7026      	strb	r6, [r4, #0]
 80010a2:	e786      	b.n	8000fb2 <main+0x6ca>
 80010a4:	2300      	movs	r3, #0
 80010a6:	e7e5      	b.n	8001074 <main+0x78c>
 80010a8:	2510      	movs	r5, #16
 80010aa:	4a34      	ldr	r2, [pc, #208]	; (800117c <main+0x894>)
 80010ac:	6814      	ldr	r4, [r2, #0]
 80010ae:	4325      	orrs	r5, r4
 80010b0:	6015      	str	r5, [r2, #0]
 80010b2:	6810      	ldr	r0, [r2, #0]
 80010b4:	4d32      	ldr	r5, [pc, #200]	; (8001180 <main+0x898>)
 80010b6:	4388      	bics	r0, r1
 80010b8:	4301      	orrs	r1, r0
 80010ba:	6011      	str	r1, [r2, #0]
 80010bc:	21f0      	movs	r1, #240	; 0xf0
 80010be:	685e      	ldr	r6, [r3, #4]
 80010c0:	4a30      	ldr	r2, [pc, #192]	; (8001184 <main+0x89c>)
 80010c2:	438e      	bics	r6, r1
 80010c4:	605e      	str	r6, [r3, #4]
 80010c6:	685f      	ldr	r7, [r3, #4]
 80010c8:	2688      	movs	r6, #136	; 0x88
 80010ca:	4017      	ands	r7, r2
 80010cc:	605f      	str	r7, [r3, #4]
 80010ce:	685c      	ldr	r4, [r3, #4]
 80010d0:	2280      	movs	r2, #128	; 0x80
 80010d2:	402c      	ands	r4, r5
 80010d4:	2580      	movs	r5, #128	; 0x80
 80010d6:	605c      	str	r4, [r3, #4]
 80010d8:	6858      	ldr	r0, [r3, #4]
 80010da:	0371      	lsls	r1, r6, #13
 80010dc:	4301      	orrs	r1, r0
 80010de:	6059      	str	r1, [r3, #4]
 80010e0:	681f      	ldr	r7, [r3, #0]
 80010e2:	0454      	lsls	r4, r2, #17
 80010e4:	433c      	orrs	r4, r7
 80010e6:	601c      	str	r4, [r3, #0]
 80010e8:	04a8      	lsls	r0, r5, #18
 80010ea:	681e      	ldr	r6, [r3, #0]
 80010ec:	4206      	tst	r6, r0
 80010ee:	d0fc      	beq.n	80010ea <main+0x802>
 80010f0:	2103      	movs	r1, #3
 80010f2:	2202      	movs	r2, #2
 80010f4:	250c      	movs	r5, #12
 80010f6:	685f      	ldr	r7, [r3, #4]
 80010f8:	438f      	bics	r7, r1
 80010fa:	433a      	orrs	r2, r7
 80010fc:	605a      	str	r2, [r3, #4]
 80010fe:	4b22      	ldr	r3, [pc, #136]	; (8001188 <main+0x8a0>)
 8001100:	6858      	ldr	r0, [r3, #4]
 8001102:	4028      	ands	r0, r5
 8001104:	2808      	cmp	r0, #8
 8001106:	d1fb      	bne.n	8001100 <main+0x818>
 8001108:	685e      	ldr	r6, [r3, #4]
 800110a:	402e      	ands	r6, r5
 800110c:	2e08      	cmp	r6, #8
 800110e:	d043      	beq.n	8001198 <main+0x8b0>
 8001110:	4c1e      	ldr	r4, [pc, #120]	; (800118c <main+0x8a4>)
 8001112:	491f      	ldr	r1, [pc, #124]	; (8001190 <main+0x8a8>)
 8001114:	46a0      	mov	r8, r4
 8001116:	6021      	str	r1, [r4, #0]
 8001118:	4641      	mov	r1, r8
 800111a:	4b1b      	ldr	r3, [pc, #108]	; (8001188 <main+0x8a0>)
 800111c:	4a1d      	ldr	r2, [pc, #116]	; (8001194 <main+0x8ac>)
 800111e:	685e      	ldr	r6, [r3, #4]
 8001120:	680b      	ldr	r3, [r1, #0]
 8001122:	0637      	lsls	r7, r6, #24
 8001124:	0f3d      	lsrs	r5, r7, #28
 8001126:	5d54      	ldrb	r4, [r2, r5]
 8001128:	40e3      	lsrs	r3, r4
 800112a:	600b      	str	r3, [r1, #0]
 800112c:	e42e      	b.n	800098c <main+0xa4>
 800112e:	46c0      	nop			; (mov r8, r8)
 8001130:	40013828 	.word	0x40013828
 8001134:	01000002 	.word	0x01000002
 8001138:	0000c350 	.word	0x0000c350
 800113c:	40014800 	.word	0x40014800
 8001140:	fffffcff 	.word	0xfffffcff
 8001144:	0000ffff 	.word	0x0000ffff
 8001148:	ff00ffff 	.word	0xff00ffff
 800114c:	fffdffff 	.word	0xfffdffff
 8001150:	40014400 	.word	0x40014400
 8001154:	ffff00ff 	.word	0xffff00ff
 8001158:	20000a0c 	.word	0x20000a0c
 800115c:	2000004c 	.word	0x2000004c
 8001160:	20000456 	.word	0x20000456
 8001164:	20000459 	.word	0x20000459
 8001168:	20000028 	.word	0x20000028
 800116c:	2000002c 	.word	0x2000002c
 8001170:	20000010 	.word	0x20000010
 8001174:	2000045c 	.word	0x2000045c
 8001178:	20000734 	.word	0x20000734
 800117c:	40022000 	.word	0x40022000
 8001180:	ffc27fff 	.word	0xffc27fff
 8001184:	fffff8ff 	.word	0xfffff8ff
 8001188:	40021000 	.word	0x40021000
 800118c:	20000024 	.word	0x20000024
 8001190:	007a1200 	.word	0x007a1200
 8001194:	20000000 	.word	0x20000000
 8001198:	220f      	movs	r2, #15
 800119a:	21c0      	movs	r1, #192	; 0xc0
 800119c:	685f      	ldr	r7, [r3, #4]
 800119e:	685d      	ldr	r5, [r3, #4]
 80011a0:	0cbc      	lsrs	r4, r7, #18
 80011a2:	4014      	ands	r4, r2
 80011a4:	0248      	lsls	r0, r1, #9
 80011a6:	3402      	adds	r4, #2
 80011a8:	4205      	tst	r5, r0
 80011aa:	d105      	bne.n	80011b8 <main+0x8d0>
 80011ac:	4d08      	ldr	r5, [pc, #32]	; (80011d0 <main+0x8e8>)
 80011ae:	4f09      	ldr	r7, [pc, #36]	; (80011d4 <main+0x8ec>)
 80011b0:	436c      	muls	r4, r5
 80011b2:	46b8      	mov	r8, r7
 80011b4:	603c      	str	r4, [r7, #0]
 80011b6:	e7af      	b.n	8001118 <main+0x830>
 80011b8:	6ad9      	ldr	r1, [r3, #44]	; 0x2c
 80011ba:	4b06      	ldr	r3, [pc, #24]	; (80011d4 <main+0x8ec>)
 80011bc:	4011      	ands	r1, r2
 80011be:	4698      	mov	r8, r3
 80011c0:	4805      	ldr	r0, [pc, #20]	; (80011d8 <main+0x8f0>)
 80011c2:	3101      	adds	r1, #1
 80011c4:	f7fe ff7e 	bl	80000c4 <__udivsi3>
 80011c8:	4646      	mov	r6, r8
 80011ca:	4344      	muls	r4, r0
 80011cc:	6034      	str	r4, [r6, #0]
 80011ce:	e7a3      	b.n	8001118 <main+0x830>
 80011d0:	003d0900 	.word	0x003d0900
 80011d4:	20000024 	.word	0x20000024
 80011d8:	007a1200 	.word	0x007a1200

080011dc <SystemInit>:
 80011dc:	2101      	movs	r1, #1
 80011de:	4b3b      	ldr	r3, [pc, #236]	; (80012cc <SystemInit+0xf0>)
 80011e0:	483b      	ldr	r0, [pc, #236]	; (80012d0 <SystemInit+0xf4>)
 80011e2:	681a      	ldr	r2, [r3, #0]
 80011e4:	b082      	sub	sp, #8
 80011e6:	430a      	orrs	r2, r1
 80011e8:	601a      	str	r2, [r3, #0]
 80011ea:	685a      	ldr	r2, [r3, #4]
 80011ec:	4002      	ands	r2, r0
 80011ee:	605a      	str	r2, [r3, #4]
 80011f0:	681a      	ldr	r2, [r3, #0]
 80011f2:	4838      	ldr	r0, [pc, #224]	; (80012d4 <SystemInit+0xf8>)
 80011f4:	4002      	ands	r2, r0
 80011f6:	601a      	str	r2, [r3, #0]
 80011f8:	681a      	ldr	r2, [r3, #0]
 80011fa:	4837      	ldr	r0, [pc, #220]	; (80012d8 <SystemInit+0xfc>)
 80011fc:	4002      	ands	r2, r0
 80011fe:	601a      	str	r2, [r3, #0]
 8001200:	685a      	ldr	r2, [r3, #4]
 8001202:	4836      	ldr	r0, [pc, #216]	; (80012dc <SystemInit+0x100>)
 8001204:	4002      	ands	r2, r0
 8001206:	200f      	movs	r0, #15
 8001208:	605a      	str	r2, [r3, #4]
 800120a:	6ada      	ldr	r2, [r3, #44]	; 0x2c
 800120c:	4382      	bics	r2, r0
 800120e:	62da      	str	r2, [r3, #44]	; 0x2c
 8001210:	6b1a      	ldr	r2, [r3, #48]	; 0x30
 8001212:	4833      	ldr	r0, [pc, #204]	; (80012e0 <SystemInit+0x104>)
 8001214:	4002      	ands	r2, r0
 8001216:	631a      	str	r2, [r3, #48]	; 0x30
 8001218:	6b5a      	ldr	r2, [r3, #52]	; 0x34
 800121a:	438a      	bics	r2, r1
 800121c:	2100      	movs	r1, #0
 800121e:	635a      	str	r2, [r3, #52]	; 0x34
 8001220:	2280      	movs	r2, #128	; 0x80
 8001222:	6099      	str	r1, [r3, #8]
 8001224:	9100      	str	r1, [sp, #0]
 8001226:	9101      	str	r1, [sp, #4]
 8001228:	6818      	ldr	r0, [r3, #0]
 800122a:	0251      	lsls	r1, r2, #9
 800122c:	4301      	orrs	r1, r0
 800122e:	22a0      	movs	r2, #160	; 0xa0
 8001230:	2080      	movs	r0, #128	; 0x80
 8001232:	6019      	str	r1, [r3, #0]
 8001234:	0280      	lsls	r0, r0, #10
 8001236:	01d1      	lsls	r1, r2, #7
 8001238:	e002      	b.n	8001240 <SystemInit+0x64>
 800123a:	9a00      	ldr	r2, [sp, #0]
 800123c:	428a      	cmp	r2, r1
 800123e:	d008      	beq.n	8001252 <SystemInit+0x76>
 8001240:	681a      	ldr	r2, [r3, #0]
 8001242:	4002      	ands	r2, r0
 8001244:	9201      	str	r2, [sp, #4]
 8001246:	9a00      	ldr	r2, [sp, #0]
 8001248:	3201      	adds	r2, #1
 800124a:	9200      	str	r2, [sp, #0]
 800124c:	9a01      	ldr	r2, [sp, #4]
 800124e:	2a00      	cmp	r2, #0
 8001250:	d0f3      	beq.n	800123a <SystemInit+0x5e>
 8001252:	4b1e      	ldr	r3, [pc, #120]	; (80012cc <SystemInit+0xf0>)
 8001254:	2180      	movs	r1, #128	; 0x80
 8001256:	6818      	ldr	r0, [r3, #0]
 8001258:	028a      	lsls	r2, r1, #10
 800125a:	0003      	movs	r3, r0
 800125c:	4013      	ands	r3, r2
 800125e:	4210      	tst	r0, r2
 8001260:	d006      	beq.n	8001270 <SystemInit+0x94>
 8001262:	2001      	movs	r0, #1
 8001264:	9001      	str	r0, [sp, #4]
 8001266:	9901      	ldr	r1, [sp, #4]
 8001268:	2901      	cmp	r1, #1
 800126a:	d005      	beq.n	8001278 <SystemInit+0x9c>
 800126c:	b002      	add	sp, #8
 800126e:	4770      	bx	lr
 8001270:	9301      	str	r3, [sp, #4]
 8001272:	9901      	ldr	r1, [sp, #4]
 8001274:	2901      	cmp	r1, #1
 8001276:	d1f9      	bne.n	800126c <SystemInit+0x90>
 8001278:	2211      	movs	r2, #17
 800127a:	4b1a      	ldr	r3, [pc, #104]	; (80012e4 <SystemInit+0x108>)
 800127c:	4813      	ldr	r0, [pc, #76]	; (80012cc <SystemInit+0xf0>)
 800127e:	601a      	str	r2, [r3, #0]
 8001280:	6841      	ldr	r1, [r0, #4]
 8001282:	6041      	str	r1, [r0, #4]
 8001284:	6843      	ldr	r3, [r0, #4]
 8001286:	4918      	ldr	r1, [pc, #96]	; (80012e8 <SystemInit+0x10c>)
 8001288:	6043      	str	r3, [r0, #4]
 800128a:	6842      	ldr	r2, [r0, #4]
 800128c:	400a      	ands	r2, r1
 800128e:	6042      	str	r2, [r0, #4]
 8001290:	2288      	movs	r2, #136	; 0x88
 8001292:	0351      	lsls	r1, r2, #13
 8001294:	2280      	movs	r2, #128	; 0x80
 8001296:	6843      	ldr	r3, [r0, #4]
 8001298:	4319      	orrs	r1, r3
 800129a:	6041      	str	r1, [r0, #4]
 800129c:	6803      	ldr	r3, [r0, #0]
 800129e:	0451      	lsls	r1, r2, #17
 80012a0:	4319      	orrs	r1, r3
 80012a2:	2380      	movs	r3, #128	; 0x80
 80012a4:	6001      	str	r1, [r0, #0]
 80012a6:	0499      	lsls	r1, r3, #18
 80012a8:	6802      	ldr	r2, [r0, #0]
 80012aa:	420a      	tst	r2, r1
 80012ac:	d0fc      	beq.n	80012a8 <SystemInit+0xcc>
 80012ae:	2103      	movs	r1, #3
 80012b0:	6843      	ldr	r3, [r0, #4]
 80012b2:	438b      	bics	r3, r1
 80012b4:	6043      	str	r3, [r0, #4]
 80012b6:	6842      	ldr	r2, [r0, #4]
 80012b8:	3901      	subs	r1, #1
 80012ba:	430a      	orrs	r2, r1
 80012bc:	210c      	movs	r1, #12
 80012be:	6042      	str	r2, [r0, #4]
 80012c0:	4802      	ldr	r0, [pc, #8]	; (80012cc <SystemInit+0xf0>)
 80012c2:	6843      	ldr	r3, [r0, #4]
 80012c4:	400b      	ands	r3, r1
 80012c6:	2b08      	cmp	r3, #8
 80012c8:	d1fb      	bne.n	80012c2 <SystemInit+0xe6>
 80012ca:	e7cf      	b.n	800126c <SystemInit+0x90>
 80012cc:	40021000 	.word	0x40021000
 80012d0:	08ffb80c 	.word	0x08ffb80c
 80012d4:	fef6ffff 	.word	0xfef6ffff
 80012d8:	fffbffff 	.word	0xfffbffff
 80012dc:	ffc0ffff 	.word	0xffc0ffff
 80012e0:	fffffeac 	.word	0xfffffeac
 80012e4:	40022000 	.word	0x40022000
 80012e8:	ffc07fff 	.word	0xffc07fff

080012ec <TIM17_IRQHandler>:
 80012ec:	b5f8      	push	{r3, r4, r5, r6, r7, lr}
 80012ee:	46ce      	mov	lr, r9
 80012f0:	4647      	mov	r7, r8
 80012f2:	2102      	movs	r1, #2
 80012f4:	b580      	push	{r7, lr}
 80012f6:	4b86      	ldr	r3, [pc, #536]	; (8001510 <TIM17_IRQHandler+0x224>)
 80012f8:	8a18      	ldrh	r0, [r3, #16]
 80012fa:	899a      	ldrh	r2, [r3, #12]
 80012fc:	b294      	uxth	r4, r2
 80012fe:	4201      	tst	r1, r0
 8001300:	d100      	bne.n	8001304 <TIM17_IRQHandler+0x18>
 8001302:	e0bc      	b.n	800147e <TIM17_IRQHandler+0x192>
 8001304:	4221      	tst	r1, r4
 8001306:	d100      	bne.n	800130a <TIM17_IRQHandler+0x1e>
 8001308:	e0b9      	b.n	800147e <TIM17_IRQHandler+0x192>
 800130a:	2503      	movs	r5, #3
 800130c:	4f81      	ldr	r7, [pc, #516]	; (8001514 <TIM17_IRQHandler+0x228>)
 800130e:	426e      	negs	r6, r5
 8001310:	821e      	strh	r6, [r3, #16]
 8001312:	8838      	ldrh	r0, [r7, #0]
 8001314:	4c80      	ldr	r4, [pc, #512]	; (8001518 <TIM17_IRQHandler+0x22c>)
 8001316:	b282      	uxth	r2, r0
 8001318:	8022      	strh	r2, [r4, #0]
 800131a:	6b5b      	ldr	r3, [r3, #52]	; 0x34
 800131c:	b299      	uxth	r1, r3
 800131e:	8039      	strh	r1, [r7, #0]
 8001320:	8825      	ldrh	r5, [r4, #0]
 8001322:	8838      	ldrh	r0, [r7, #0]
 8001324:	b2ae      	uxth	r6, r5
 8001326:	4285      	cmp	r5, r0
 8001328:	d800      	bhi.n	800132c <TIM17_IRQHandler+0x40>
 800132a:	e0ac      	b.n	8001486 <TIM17_IRQHandler+0x19a>
 800132c:	883f      	ldrh	r7, [r7, #0]
 800132e:	4c7b      	ldr	r4, [pc, #492]	; (800151c <TIM17_IRQHandler+0x230>)
 8001330:	3f01      	subs	r7, #1
 8001332:	1bba      	subs	r2, r7, r6
 8001334:	27df      	movs	r7, #223	; 0xdf
 8001336:	b293      	uxth	r3, r2
 8001338:	8023      	strh	r3, [r4, #0]
 800133a:	8820      	ldrh	r0, [r4, #0]
 800133c:	007b      	lsls	r3, r7, #1
 800133e:	4298      	cmp	r0, r3
 8001340:	d300      	bcc.n	8001344 <TIM17_IRQHandler+0x58>
 8001342:	e0ab      	b.n	800149c <TIM17_IRQHandler+0x1b0>
 8001344:	2102      	movs	r1, #2
 8001346:	4d76      	ldr	r5, [pc, #472]	; (8001520 <TIM17_IRQHandler+0x234>)
 8001348:	2601      	movs	r6, #1
 800134a:	8aaa      	ldrh	r2, [r5, #20]
 800134c:	430a      	orrs	r2, r1
 800134e:	82aa      	strh	r2, [r5, #20]
 8001350:	8023      	strh	r3, [r4, #0]
 8001352:	4b74      	ldr	r3, [pc, #464]	; (8001524 <TIM17_IRQHandler+0x238>)
 8001354:	4698      	mov	r8, r3
 8001356:	701e      	strb	r6, [r3, #0]
 8001358:	8827      	ldrh	r7, [r4, #0]
 800135a:	2116      	movs	r1, #22
 800135c:	b2b8      	uxth	r0, r7
 800135e:	f7fe feb1 	bl	80000c4 <__udivsi3>
 8001362:	b285      	uxth	r5, r0
 8001364:	2016      	movs	r0, #22
 8001366:	4e70      	ldr	r6, [pc, #448]	; (8001528 <TIM17_IRQHandler+0x23c>)
 8001368:	4f70      	ldr	r7, [pc, #448]	; (800152c <TIM17_IRQHandler+0x240>)
 800136a:	8035      	strh	r5, [r6, #0]
 800136c:	4d70      	ldr	r5, [pc, #448]	; (8001530 <TIM17_IRQHandler+0x244>)
 800136e:	782a      	ldrb	r2, [r5, #0]
 8001370:	3201      	adds	r2, #1
 8001372:	b2d1      	uxtb	r1, r2
 8001374:	7029      	strb	r1, [r5, #0]
 8001376:	782b      	ldrb	r3, [r5, #0]
 8001378:	496e      	ldr	r1, [pc, #440]	; (8001534 <TIM17_IRQHandler+0x248>)
 800137a:	4343      	muls	r3, r0
 800137c:	803b      	strh	r3, [r7, #0]
 800137e:	8832      	ldrh	r2, [r6, #0]
 8001380:	4b6d      	ldr	r3, [pc, #436]	; (8001538 <TIM17_IRQHandler+0x24c>)
 8001382:	b290      	uxth	r0, r2
 8001384:	780a      	ldrb	r2, [r1, #0]
 8001386:	468c      	mov	ip, r1
 8001388:	0051      	lsls	r1, r2, #1
 800138a:	52c8      	strh	r0, [r1, r3]
 800138c:	2103      	movs	r1, #3
 800138e:	3201      	adds	r2, #1
 8001390:	400a      	ands	r2, r1
 8001392:	4661      	mov	r1, ip
 8001394:	700a      	strb	r2, [r1, #0]
 8001396:	885a      	ldrh	r2, [r3, #2]
 8001398:	8819      	ldrh	r1, [r3, #0]
 800139a:	0080      	lsls	r0, r0, #2
 800139c:	1889      	adds	r1, r1, r2
 800139e:	889a      	ldrh	r2, [r3, #4]
 80013a0:	88db      	ldrh	r3, [r3, #6]
 80013a2:	1889      	adds	r1, r1, r2
 80013a4:	18ca      	adds	r2, r1, r3
 80013a6:	1091      	asrs	r1, r2, #2
 80013a8:	b280      	uxth	r0, r0
 80013aa:	2900      	cmp	r1, #0
 80013ac:	d003      	beq.n	80013b6 <TIM17_IRQHandler+0xca>
 80013ae:	b289      	uxth	r1, r1
 80013b0:	f7fe fe88 	bl	80000c4 <__udivsi3>
 80013b4:	b280      	uxth	r0, r0
 80013b6:	2804      	cmp	r0, #4
 80013b8:	d800      	bhi.n	80013bc <TIM17_IRQHandler+0xd0>
 80013ba:	e079      	b.n	80014b0 <TIM17_IRQHandler+0x1c4>
 80013bc:	8820      	ldrh	r0, [r4, #0]
 80013be:	2116      	movs	r1, #22
 80013c0:	0842      	lsrs	r2, r0, #1
 80013c2:	8022      	strh	r2, [r4, #0]
 80013c4:	8824      	ldrh	r4, [r4, #0]
 80013c6:	b2a0      	uxth	r0, r4
 80013c8:	f7fe fe7c 	bl	80000c4 <__udivsi3>
 80013cc:	b283      	uxth	r3, r0
 80013ce:	485b      	ldr	r0, [pc, #364]	; (800153c <TIM17_IRQHandler+0x250>)
 80013d0:	8033      	strh	r3, [r6, #0]
 80013d2:	8801      	ldrh	r1, [r0, #0]
 80013d4:	4c5a      	ldr	r4, [pc, #360]	; (8001540 <TIM17_IRQHandler+0x254>)
 80013d6:	b28a      	uxth	r2, r1
 80013d8:	4b4d      	ldr	r3, [pc, #308]	; (8001510 <TIM17_IRQHandler+0x224>)
 80013da:	8022      	strh	r2, [r4, #0]
 80013dc:	6b59      	ldr	r1, [r3, #52]	; 0x34
 80013de:	b28a      	uxth	r2, r1
 80013e0:	8002      	strh	r2, [r0, #0]
 80013e2:	8823      	ldrh	r3, [r4, #0]
 80013e4:	8801      	ldrh	r1, [r0, #0]
 80013e6:	8800      	ldrh	r0, [r0, #0]
 80013e8:	b29c      	uxth	r4, r3
 80013ea:	1b00      	subs	r0, r0, r4
 80013ec:	428b      	cmp	r3, r1
 80013ee:	d902      	bls.n	80013f6 <TIM17_IRQHandler+0x10a>
 80013f0:	4a54      	ldr	r2, [pc, #336]	; (8001544 <TIM17_IRQHandler+0x258>)
 80013f2:	4691      	mov	r9, r2
 80013f4:	4448      	add	r0, r9
 80013f6:	2132      	movs	r1, #50	; 0x32
 80013f8:	f7fe feee 	bl	80001d8 <__divsi3>
 80013fc:	4b52      	ldr	r3, [pc, #328]	; (8001548 <TIM17_IRQHandler+0x25c>)
 80013fe:	b284      	uxth	r4, r0
 8001400:	801c      	strh	r4, [r3, #0]
 8001402:	7829      	ldrb	r1, [r5, #0]
 8001404:	4699      	mov	r9, r3
 8001406:	290f      	cmp	r1, #15
 8001408:	d100      	bne.n	800140c <TIM17_IRQHandler+0x120>
 800140a:	e07a      	b.n	8001502 <TIM17_IRQHandler+0x216>
 800140c:	2301      	movs	r3, #1
 800140e:	2102      	movs	r1, #2
 8001410:	4c4e      	ldr	r4, [pc, #312]	; (800154c <TIM17_IRQHandler+0x260>)
 8001412:	4843      	ldr	r0, [pc, #268]	; (8001520 <TIM17_IRQHandler+0x234>)
 8001414:	7023      	strb	r3, [r4, #0]
 8001416:	8a82      	ldrh	r2, [r0, #20]
 8001418:	430a      	orrs	r2, r1
 800141a:	8282      	strh	r2, [r0, #20]
 800141c:	f7ff fa30 	bl	8000880 <stop_hardware_capture>
 8001420:	2000      	movs	r0, #0
 8001422:	4b4b      	ldr	r3, [pc, #300]	; (8001550 <TIM17_IRQHandler+0x264>)
 8001424:	494b      	ldr	r1, [pc, #300]	; (8001554 <TIM17_IRQHandler+0x268>)
 8001426:	7018      	strb	r0, [r3, #0]
 8001428:	2301      	movs	r3, #1
 800142a:	780a      	ldrb	r2, [r1, #0]
 800142c:	4053      	eors	r3, r2
 800142e:	700b      	strb	r3, [r1, #0]
 8001430:	2a01      	cmp	r2, #1
 8001432:	d148      	bne.n	80014c6 <TIM17_IRQHandler+0x1da>
 8001434:	20b6      	movs	r0, #182	; 0xb6
 8001436:	2100      	movs	r1, #0
 8001438:	0082      	lsls	r2, r0, #2
 800143a:	4847      	ldr	r0, [pc, #284]	; (8001558 <TIM17_IRQHandler+0x26c>)
 800143c:	f000 f8e8 	bl	8001610 <memset>
 8001440:	7821      	ldrb	r1, [r4, #0]
 8001442:	2900      	cmp	r1, #0
 8001444:	d059      	beq.n	80014fa <TIM17_IRQHandler+0x20e>
 8001446:	2100      	movs	r1, #0
 8001448:	7021      	strb	r1, [r4, #0]
 800144a:	2401      	movs	r4, #1
 800144c:	7029      	strb	r1, [r5, #0]
 800144e:	8039      	strh	r1, [r7, #0]
 8001450:	4f42      	ldr	r7, [pc, #264]	; (800155c <TIM17_IRQHandler+0x270>)
 8001452:	8836      	ldrh	r6, [r6, #0]
 8001454:	8838      	ldrh	r0, [r7, #0]
 8001456:	3e01      	subs	r6, #1
 8001458:	43a0      	bics	r0, r4
 800145a:	8038      	strh	r0, [r7, #0]
 800145c:	2001      	movs	r0, #1
 800145e:	b2b5      	uxth	r5, r6
 8001460:	6279      	str	r1, [r7, #36]	; 0x24
 8001462:	006b      	lsls	r3, r5, #1
 8001464:	0469      	lsls	r1, r5, #17
 8001466:	b29a      	uxth	r2, r3
 8001468:	0c4e      	lsrs	r6, r1, #17
 800146a:	62fa      	str	r2, [r7, #44]	; 0x2c
 800146c:	637e      	str	r6, [r7, #52]	; 0x34
 800146e:	8abd      	ldrh	r5, [r7, #20]
 8001470:	4305      	orrs	r5, r0
 8001472:	b2ac      	uxth	r4, r5
 8001474:	82bc      	strh	r4, [r7, #20]
 8001476:	883b      	ldrh	r3, [r7, #0]
 8001478:	4303      	orrs	r3, r0
 800147a:	b29a      	uxth	r2, r3
 800147c:	803a      	strh	r2, [r7, #0]
 800147e:	bcc0      	pop	{r6, r7}
 8001480:	46b9      	mov	r9, r7
 8001482:	46b0      	mov	r8, r6
 8001484:	bdf8      	pop	{r3, r4, r5, r6, r7, pc}
 8001486:	8839      	ldrh	r1, [r7, #0]
 8001488:	27df      	movs	r7, #223	; 0xdf
 800148a:	4c24      	ldr	r4, [pc, #144]	; (800151c <TIM17_IRQHandler+0x230>)
 800148c:	1b8d      	subs	r5, r1, r6
 800148e:	b2ae      	uxth	r6, r5
 8001490:	8026      	strh	r6, [r4, #0]
 8001492:	8820      	ldrh	r0, [r4, #0]
 8001494:	007b      	lsls	r3, r7, #1
 8001496:	4298      	cmp	r0, r3
 8001498:	d200      	bcs.n	800149c <TIM17_IRQHandler+0x1b0>
 800149a:	e753      	b.n	8001344 <TIM17_IRQHandler+0x58>
 800149c:	2102      	movs	r1, #2
 800149e:	2000      	movs	r0, #0
 80014a0:	4a1f      	ldr	r2, [pc, #124]	; (8001520 <TIM17_IRQHandler+0x234>)
 80014a2:	4e20      	ldr	r6, [pc, #128]	; (8001524 <TIM17_IRQHandler+0x238>)
 80014a4:	8a95      	ldrh	r5, [r2, #20]
 80014a6:	46b0      	mov	r8, r6
 80014a8:	438d      	bics	r5, r1
 80014aa:	8295      	strh	r5, [r2, #20]
 80014ac:	7030      	strb	r0, [r6, #0]
 80014ae:	e753      	b.n	8001358 <TIM17_IRQHandler+0x6c>
 80014b0:	8834      	ldrh	r4, [r6, #0]
 80014b2:	4a2a      	ldr	r2, [pc, #168]	; (800155c <TIM17_IRQHandler+0x270>)
 80014b4:	3c01      	subs	r4, #1
 80014b6:	b2a6      	uxth	r6, r4
 80014b8:	0075      	lsls	r5, r6, #1
 80014ba:	0473      	lsls	r3, r6, #17
 80014bc:	b2af      	uxth	r7, r5
 80014be:	0c59      	lsrs	r1, r3, #17
 80014c0:	62d7      	str	r7, [r2, #44]	; 0x2c
 80014c2:	6351      	str	r1, [r2, #52]	; 0x34
 80014c4:	e7db      	b.n	800147e <TIM17_IRQHandler+0x192>
 80014c6:	20b6      	movs	r0, #182	; 0xb6
 80014c8:	2100      	movs	r1, #0
 80014ca:	0082      	lsls	r2, r0, #2
 80014cc:	4824      	ldr	r0, [pc, #144]	; (8001560 <TIM17_IRQHandler+0x274>)
 80014ce:	f000 f89f 	bl	8001610 <memset>
 80014d2:	7821      	ldrb	r1, [r4, #0]
 80014d4:	2900      	cmp	r1, #0
 80014d6:	d1b6      	bne.n	8001446 <TIM17_IRQHandler+0x15a>
 80014d8:	4642      	mov	r2, r8
 80014da:	481f      	ldr	r0, [pc, #124]	; (8001558 <TIM17_IRQHandler+0x26c>)
 80014dc:	7813      	ldrb	r3, [r2, #0]
 80014de:	001a      	movs	r2, r3
 80014e0:	4920      	ldr	r1, [pc, #128]	; (8001564 <TIM17_IRQHandler+0x278>)
 80014e2:	1e53      	subs	r3, r2, #1
 80014e4:	419a      	sbcs	r2, r3
 80014e6:	6001      	str	r1, [r0, #0]
 80014e8:	4649      	mov	r1, r9
 80014ea:	4b1f      	ldr	r3, [pc, #124]	; (8001568 <TIM17_IRQHandler+0x27c>)
 80014ec:	4313      	orrs	r3, r2
 80014ee:	8083      	strh	r3, [r0, #4]
 80014f0:	880a      	ldrh	r2, [r1, #0]
 80014f2:	80c2      	strh	r2, [r0, #6]
 80014f4:	f7fe ffd0 	bl	8000498 <uart_tx_dma_config.constprop.0>
 80014f8:	e7a5      	b.n	8001446 <TIM17_IRQHandler+0x15a>
 80014fa:	4642      	mov	r2, r8
 80014fc:	4818      	ldr	r0, [pc, #96]	; (8001560 <TIM17_IRQHandler+0x274>)
 80014fe:	7813      	ldrb	r3, [r2, #0]
 8001500:	e7ed      	b.n	80014de <TIM17_IRQHandler+0x1f2>
 8001502:	2402      	movs	r4, #2
 8001504:	4806      	ldr	r0, [pc, #24]	; (8001520 <TIM17_IRQHandler+0x234>)
 8001506:	8a82      	ldrh	r2, [r0, #20]
 8001508:	43a2      	bics	r2, r4
 800150a:	8282      	strh	r2, [r0, #20]
 800150c:	4c0f      	ldr	r4, [pc, #60]	; (800154c <TIM17_IRQHandler+0x260>)
 800150e:	e785      	b.n	800141c <TIM17_IRQHandler+0x130>
 8001510:	40014800 	.word	0x40014800
 8001514:	2000004e 	.word	0x2000004e
 8001518:	20000050 	.word	0x20000050
 800151c:	20000454 	.word	0x20000454
 8001520:	48000400 	.word	0x48000400
 8001524:	20000457 	.word	0x20000457
 8001528:	20000a12 	.word	0x20000a12
 800152c:	2000004c 	.word	0x2000004c
 8001530:	20000a0d 	.word	0x20000a0d
 8001534:	20000458 	.word	0x20000458
 8001538:	20000a14 	.word	0x20000a14
 800153c:	20000a1e 	.word	0x20000a1e
 8001540:	20000a20 	.word	0x20000a20
 8001544:	0000ffff 	.word	0x0000ffff
 8001548:	20000a0e 	.word	0x20000a0e
 800154c:	20000a10 	.word	0x20000a10
 8001550:	20000456 	.word	0x20000456
 8001554:	20000a0c 	.word	0x20000a0c
 8001558:	2000045c 	.word	0x2000045c
 800155c:	40014400 	.word	0x40014400
 8001560:	20000734 	.word	0x20000734
 8001564:	ddccbbaa 	.word	0xddccbbaa
 8001568:	ffff8000 	.word	0xffff8000

0800156c <TIM16_IRQHandler>:
 800156c:	2102      	movs	r1, #2
 800156e:	b510      	push	{r4, lr}
 8001570:	4b1c      	ldr	r3, [pc, #112]	; (80015e4 <TIM16_IRQHandler+0x78>)
 8001572:	8a18      	ldrh	r0, [r3, #16]
 8001574:	899a      	ldrh	r2, [r3, #12]
 8001576:	b292      	uxth	r2, r2
 8001578:	4201      	tst	r1, r0
 800157a:	d00e      	beq.n	800159a <TIM16_IRQHandler+0x2e>
 800157c:	4211      	tst	r1, r2
 800157e:	d00c      	beq.n	800159a <TIM16_IRQHandler+0x2e>
 8001580:	2003      	movs	r0, #3
 8001582:	4a19      	ldr	r2, [pc, #100]	; (80015e8 <TIM16_IRQHandler+0x7c>)
 8001584:	4240      	negs	r0, r0
 8001586:	8210      	strh	r0, [r2, #16]
 8001588:	20b3      	movs	r0, #179	; 0xb3
 800158a:	8a1a      	ldrh	r2, [r3, #16]
 800158c:	438a      	bics	r2, r1
 800158e:	821a      	strh	r2, [r3, #16]
 8001590:	4b16      	ldr	r3, [pc, #88]	; (80015ec <TIM16_IRQHandler+0x80>)
 8001592:	0042      	lsls	r2, r0, #1
 8001594:	8819      	ldrh	r1, [r3, #0]
 8001596:	4291      	cmp	r1, r2
 8001598:	d900      	bls.n	800159c <TIM16_IRQHandler+0x30>
 800159a:	bd10      	pop	{r4, pc}
 800159c:	2100      	movs	r1, #0
 800159e:	4814      	ldr	r0, [pc, #80]	; (80015f0 <TIM16_IRQHandler+0x84>)
 80015a0:	7001      	strb	r1, [r0, #0]
 80015a2:	881a      	ldrh	r2, [r3, #0]
 80015a4:	3101      	adds	r1, #1
 80015a6:	3201      	adds	r2, #1
 80015a8:	b290      	uxth	r0, r2
 80015aa:	8018      	strh	r0, [r3, #0]
 80015ac:	881a      	ldrh	r2, [r3, #0]
 80015ae:	3201      	adds	r2, #1
 80015b0:	b290      	uxth	r0, r2
 80015b2:	8018      	strh	r0, [r3, #0]
 80015b4:	4b0f      	ldr	r3, [pc, #60]	; (80015f4 <TIM16_IRQHandler+0x88>)
 80015b6:	781a      	ldrb	r2, [r3, #0]
 80015b8:	404a      	eors	r2, r1
 80015ba:	701a      	strb	r2, [r3, #0]
 80015bc:	7819      	ldrb	r1, [r3, #0]
 80015be:	07cb      	lsls	r3, r1, #31
 80015c0:	d508      	bpl.n	80015d4 <TIM16_IRQHandler+0x68>
 80015c2:	480d      	ldr	r0, [pc, #52]	; (80015f8 <TIM16_IRQHandler+0x8c>)
 80015c4:	4b0d      	ldr	r3, [pc, #52]	; (80015fc <TIM16_IRQHandler+0x90>)
 80015c6:	490e      	ldr	r1, [pc, #56]	; (8001600 <TIM16_IRQHandler+0x94>)
 80015c8:	4a0e      	ldr	r2, [pc, #56]	; (8001604 <TIM16_IRQHandler+0x98>)
 80015ca:	6003      	str	r3, [r0, #0]
 80015cc:	600a      	str	r2, [r1, #0]
 80015ce:	f7ff f91b 	bl	8000808 <meas_handler>
 80015d2:	e7e2      	b.n	800159a <TIM16_IRQHandler+0x2e>
 80015d4:	4808      	ldr	r0, [pc, #32]	; (80015f8 <TIM16_IRQHandler+0x8c>)
 80015d6:	4b0c      	ldr	r3, [pc, #48]	; (8001608 <TIM16_IRQHandler+0x9c>)
 80015d8:	4909      	ldr	r1, [pc, #36]	; (8001600 <TIM16_IRQHandler+0x94>)
 80015da:	4a0c      	ldr	r2, [pc, #48]	; (800160c <TIM16_IRQHandler+0xa0>)
 80015dc:	6003      	str	r3, [r0, #0]
 80015de:	600a      	str	r2, [r1, #0]
 80015e0:	e7f5      	b.n	80015ce <TIM16_IRQHandler+0x62>
 80015e2:	46c0      	nop			; (mov r8, r8)
 80015e4:	40014400 	.word	0x40014400
 80015e8:	40014800 	.word	0x40014800
 80015ec:	2000004c 	.word	0x2000004c
 80015f0:	20000456 	.word	0x20000456
 80015f4:	20000a1c 	.word	0x20000a1c
 80015f8:	20000028 	.word	0x20000028
 80015fc:	20000054 	.word	0x20000054
 8001600:	2000002c 	.word	0x2000002c
 8001604:	20000254 	.word	0x20000254
 8001608:	20000154 	.word	0x20000154
 800160c:	20000354 	.word	0x20000354

08001610 <memset>:
 8001610:	0003      	movs	r3, r0
 8001612:	1882      	adds	r2, r0, r2
 8001614:	4293      	cmp	r3, r2
 8001616:	d100      	bne.n	800161a <memset+0xa>
 8001618:	4770      	bx	lr
 800161a:	7019      	strb	r1, [r3, #0]
 800161c:	3301      	adds	r3, #1
 800161e:	e7f9      	b.n	8001614 <memset+0x4>

08001620 <_init>:
 8001620:	b5f8      	push	{r3, r4, r5, r6, r7, lr}
 8001622:	46c0      	nop			; (mov r8, r8)
 8001624:	bcf8      	pop	{r3, r4, r5, r6, r7}
 8001626:	bc08      	pop	{r3}
 8001628:	469e      	mov	lr, r3
 800162a:	4770      	bx	lr

0800162c <_fini>:
 800162c:	b5f8      	push	{r3, r4, r5, r6, r7, lr}
 800162e:	46c0      	nop			; (mov r8, r8)
 8001630:	bcf8      	pop	{r3, r4, r5, r6, r7}
 8001632:	bc08      	pop	{r3}
 8001634:	469e      	mov	lr, r3
 8001636:	4770      	bx	lr
