
build/lidar4.elf:     file format elf32-littlearm
build/lidar4.elf
architecture: armv6s-m, flags 0x00000112:
EXEC_P, HAS_SYMS, D_PAGED
start address 0x0800045d

Program Header:
    LOAD off    0x00010000 vaddr 0x08000000 paddr 0x08000000 align 2**16
         filesz 0x000014a8 memsz 0x000014a8 flags rwx
    LOAD off    0x00020000 vaddr 0x20000000 paddr 0x080014a8 align 2**16
         filesz 0x00000030 memsz 0x00000a20 flags rw-
    LOAD off    0x00000a20 vaddr 0x20000a20 paddr 0x080014d8 align 2**16
         filesz 0x00000000 memsz 0x00000080 flags rw-
private flags = 5000200: [Version5 EABI] [soft-float ABI]

Sections:
Idx Name              Size      VMA       LMA       File off  Algn  Flags
  0 .isr_vector       000000c4  08000000  08000000  00010000  2**0  CONTENTS, ALLOC, LOAD, READONLY, DATA
  1 .text             000013dc  080000c4  080000c4  000100c4  2**2  CONTENTS, ALLOC, LOAD, READONLY, CODE
  2 .rodata           00000000  080014a0  080014a0  00020030  2**0  CONTENTS, ALLOC, LOAD, DATA
  3 .init_array       00000004  080014a0  080014a0  000114a0  2**2  CONTENTS, ALLOC, LOAD, DATA
  4 .fini_array       00000004  080014a4  080014a4  000114a4  2**2  CONTENTS, ALLOC, LOAD, DATA
  5 .data             00000030  20000000  080014a8  00020000  2**2  CONTENTS, ALLOC, LOAD, DATA
  6 .bss              000009f0  20000030  080014d8  00020030  2**2  ALLOC
  7 ._user_heap_stack 00000080  20000a20  080014d8  00020a20  2**0  ALLOC
  8 .ARM.attributes   0000002a  00000000  00000000  00020030  2**0  CONTENTS, READONLY
  9 .comment          00000025  00000000  00000000  0002005a  2**0  CONTENTS, READONLY
 10 .debug_info       00000ee6  00000000  00000000  0002007f  2**0  CONTENTS, READONLY, DEBUGGING, OCTETS
 11 .debug_abbrev     0000021c  00000000  00000000  00020f65  2**0  CONTENTS, READONLY, DEBUGGING, OCTETS
 12 .debug_loc        00000096  00000000  00000000  00021181  2**0  CONTENTS, READONLY, DEBUGGING, OCTETS
 13 .debug_aranges    000000a0  00000000  00000000  00021218  2**3  CONTENTS, READONLY, DEBUGGING, OCTETS
 14 .debug_ranges     00000010  00000000  00000000  000212b8  2**0  CONTENTS, READONLY, DEBUGGING, OCTETS
 15 .debug_line       000004a4  00000000  00000000  000212c8  2**0  CONTENTS, READONLY, DEBUGGING, OCTETS
 16 .debug_str        00000899  00000000  00000000  0002176c  2**0  CONTENTS, READONLY, DEBUGGING, OCTETS
 17 .debug_frame      00000060  00000000  00000000  00022008  2**2  CONTENTS, READONLY, DEBUGGING, OCTETS
SYMBOL TABLE:
08000000 l    d  .isr_vector	00000000 .isr_vector
080000c4 l    d  .text	00000000 .text
080014a0 l    d  .rodata	00000000 .rodata
080014a0 l    d  .init_array	00000000 .init_array
080014a4 l    d  .fini_array	00000000 .fini_array
20000000 l    d  .data	00000000 .data
20000030 l    d  .bss	00000000 .bss
20000a20 l    d  ._user_heap_stack	00000000 ._user_heap_stack
00000000 l    d  .ARM.attributes	00000000 .ARM.attributes
00000000 l    d  .comment	00000000 .comment
00000000 l    d  .debug_info	00000000 .debug_info
00000000 l    d  .debug_abbrev	00000000 .debug_abbrev
00000000 l    d  .debug_loc	00000000 .debug_loc
00000000 l    d  .debug_aranges	00000000 .debug_aranges
00000000 l    d  .debug_ranges	00000000 .debug_ranges
00000000 l    d  .debug_line	00000000 .debug_line
00000000 l    d  .debug_str	00000000 .debug_str
00000000 l    d  .debug_frame	00000000 .debug_frame
00000000 l    df *ABS*	00000000 C:\Users\KONSTA~1\AppData\Local\Temp\cctQVSKk.o
f108f85f l       *ABS*	00000000 BootRAM
0800046c l       .text	00000000 LoopCopyDataInit
08000464 l       .text	00000000 CopyDataInit
08000480 l       .text	00000000 LoopFillZerobss
0800047a l       .text	00000000 FillZerobss
0800048e l       .text	00000000 LoopForever
080004a8 l       .text	00000000 Infinite_Loop
00000000 l    df *ABS*	00000000 _thumb1_case_uqi.o
00000000 l    df *ABS*	00000000 _udivsi3.o
080000d8 l       .text	00000000 .udivsi3_skip_div0_test
00000000 l    df *ABS*	00000000 _divsi3.o
080001ec l       .text	00000000 .divsi3_skip_div0_test
00000000 l    df *ABS*	00000000 _dvmd_tls.o
00000000 l    df *ABS*	00000000 crtstuff.c
08001488 l     O .text	00000000 __EH_FRAME_BEGIN__
080003c4 l     F .text	00000000 deregister_tm_clones
080003e4 l     F .text	00000000 register_tm_clones
0800040c l     F .text	00000000 __do_global_dtors_aux
20000030 l     O .bss	00000000 completed.6739
080014a4 l     O .fini_array	00000000 __do_global_dtors_aux_fini_array_entry
08000438 l     F .text	00000000 frame_dummy
20000034 l     O .bss	00000000 object.6744
080014a0 l     O .init_array	00000000 __frame_dummy_init_array_entry
00000000 l    df *ABS*	00000000 
080004ac l     F .text	00000034 uart_tx_dma_config.constprop.0
080004e0 l     F .text	0000003c DMA_Init
0800051c l     F .text	00000174 RCC_GetClocksFreq
08000690 l     F .text	00000076 GPIO_Init
08000706 l     F .text	00000012 small_delay
08000718 l     F .text	00000028 stop_hardware_capture
08000740 l     F .text	00000024 init_clk_pin
08000764 l     F .text	00000070 capture_start
080007d4 l     F .text	00000068 meas_handler
20000052 l     O .bss	00000100 data_adc_laser0
20000458 l     O .bss	000002d8 res_buf0
20000730 l     O .bss	000002d8 res_buf1
20000252 l     O .bss	00000100 data_adc_off0
20000152 l     O .bss	00000100 data_adc_laser1
20000352 l     O .bss	00000100 data_adc_off1
2000004c l     O .bss	00000002 cap_number
2000004e l     O .bss	00000002 capture_now
20000050 l     O .bss	00000002 capture_old
20000452 l     O .bss	00000002 enc_period
20000454 l     O .bss	00000001 meas_status
20000455 l     O .bss	00000001 overspeed_flag
20000456 l     O .bss	00000001 pos.7548
20000457 l     O .bss	00000001 proc_done_flag
20000a08 l     O .bss	00000001 res_buf_num
20000a09 l     O .bss	00000001 rot_num
20000a0a l     O .bss	00000002 rot_period
20000a0c l     O .bss	00000001 sync_failed_flag
20000a0e l     O .bss	00000002 time_tmp
20000a10 l     O .bss	00000008 times.7547
20000a18 l     O .bss	00000001 tmp_flag.6518
20000a1a l     O .bss	00000002 zero_now.7528
20000a1c l     O .bss	00000002 zero_old.7527
20000000 l     O .data	00000010 AHBPrescTable
20000010 l     O .data	00000001 AN_WIDTH
20000011 l     O .data	00000010 APBAHBPrescTable
20000024 l     O .data	00000004 SystemCoreClock
20000028 l     O .data	00000004 data_adc_laser_p
2000002c l     O .data	00000004 data_adc_off_p
00000000 l    df *ABS*	00000000 memset.c
00000000 l    df *ABS*	00000000 c:/!tools/gcc/arm-none-eabi-gcc/bin/../lib/gcc/arm-none-eabi/9.3.0/thumb/v6-m/nofp/crti.o
00000000 l    df *ABS*	00000000 c:/!tools/gcc/arm-none-eabi-gcc/bin/../lib/gcc/arm-none-eabi/9.3.0/thumb/v6-m/nofp/crtn.o
00000000 l    df *ABS*	00000000 
080014a8 l       .fini_array	00000000 __fini_array_end
080014a4 l       .fini_array	00000000 __fini_array_start
080014a4 l       .init_array	00000000 __init_array_end
080014a0 l       .rodata	00000000 __preinit_array_end
080014a0 l       .init_array	00000000 __init_array_start
080014a0 l       .rodata	00000000 __preinit_array_start
080004a8  w    F .text	00000002 TIM1_CC_IRQHandler
0800086c g     F .text	00000002 HardFault_Handler
00000080 g       *ABS*	00000000 _Min_Stack_Size
08000864 g     F .text	00000002 SysTick_Handler
080014a8 g       *ABS*	00000000 _sidata
08000868 g     F .text	00000002 PendSV_Handler
08000866 g     F .text	00000002 NMI_Handler
080014a0 g       .rodata	00000000 __exidx_end
080004a8  w    F .text	00000002 I2C1_IRQHandler
080014a0 g       .text	00000000 _etext
20000030 g       .bss	00000000 _sbss
20000030 g     O .data	00000000 .hidden __TMC_END__
080000d8 g     F .text	0000010a .hidden __udivsi3
20000030 g       .bss	00000000 __bss_start__
20000000 g       .data	00000000 _sdata
080004a8  w    F .text	00000002 SPI1_IRQHandler
080000c4 g     F .text	00000012 .hidden __gnu_thumb1_case_uqi
080014a0 g       .rodata	00000000 __exidx_start
080004a8  w    F .text	00000002 EXTI2_3_IRQHandler
080004a8  w    F .text	00000002 ADC1_IRQHandler
08001488 g     F .text	00000000 _init
080004a8  w    F .text	00000002 I2C2_IRQHandler
080011a8 g     F .text	00000234 TIM17_IRQHandler
080004a8  w    F .text	00000002 RTC_IRQHandler
20000a20 g       .bss	00000000 _ebss
0800045c  w    F .text	00000034 Reset_Handler
080001ec g     F .text	00000000 .hidden __aeabi_idiv
080013dc g     F .text	0000009c TIM16_IRQHandler
20000a20 g       .bss	00000000 __bss_end__
080004a8  w    F .text	00000002 TIM3_IRQHandler
080004a8  w    F .text	00000002 EXTI4_15_IRQHandler
080004a8  w    F .text	00000002 RCC_IRQHandler
00000000 g       *ABS*	00000000 _Min_Heap_Size
0800083c g     F .text	00000028 DMA1_Channel1_IRQHandler
080004a8 g       .text	00000002 Default_Handler
080004a8  w    F .text	00000002 TIM14_IRQHandler
080004a8  w    F .text	00000002 DMA1_Channel4_5_IRQHandler
080004a8  w    F .text	00000002 TIM15_IRQHandler
080004a8  w    F .text	00000002 EXTI0_1_IRQHandler
080003c0  w    F .text	00000002 .hidden __aeabi_ldiv0
080004a8  w    F .text	00000002 SPI2_IRQHandler
08001478 g     F .text	00000010 memset
08000870 g     F .text	00000838 main
080000d8 g     F .text	00000000 .hidden __aeabi_uidiv
0800086a g     F .text	00000002 SVC_Handler
080001ec g     F .text	000001cc .hidden __divsi3
080010a8 g     F .text	00000100 SystemInit
08001494 g     F .text	00000000 _fini
080004a8  w    F .text	00000002 WWDG_IRQHandler
080004a8  w    F .text	00000002 DMA1_Channel2_3_IRQHandler
20001000 g       *ABS*	00000000 _estack
080001e4 g     F .text	00000008 .hidden __aeabi_uidivmod
20000030 g       .data	00000000 _edata
080004a8  w    F .text	00000002 USART2_IRQHandler
08000000 g     O .isr_vector	00000000 g_pfnVectors
080003c0  w    F .text	00000002 .hidden __aeabi_idiv0
080004a8  w    F .text	00000002 FLASH_IRQHandler
080004a8  w    F .text	00000002 USART1_IRQHandler
080004a8  w    F .text	00000002 TIM1_BRK_UP_TRG_COM_IRQHandler
080003b8 g     F .text	00000008 .hidden __aeabi_idivmod


Contents of section .isr_vector:
 8000000 00100020 5d040008 67080008 6d080008  ... ]...g...m...
 8000010 00000000 00000000 00000000 00000000  ................
 8000020 00000000 00000000 00000000 6b080008  ............k...
 8000030 00000000 00000000 69080008 65080008  ........i...e...
 8000040 a9040008 00000000 a9040008 a9040008  ................
 8000050 a9040008 a9040008 a9040008 a9040008  ................
 8000060 00000000 3d080008 a9040008 a9040008  ....=...........
 8000070 a9040008 a9040008 a9040008 00000000  ................
 8000080 a9040008 00000000 00000000 a9040008  ................
 8000090 a9040008 dd130008 a9110008 a9040008  ................
 80000a0 a9040008 a9040008 a9040008 a9040008  ................
 80000b0 a9040008 00000000 00000000 00000000  ................
 80000c0 5ff808f1                             _...            
Contents of section .text:
 80000c4 02b47146 49084900 095c4900 8e4402bc  ..qFI.I..\I..D..
 80000d4 7047c046 00224308 8b4274d3 03098b42  pG.F."C..Bt....B
 80000e4 5fd3030a 8b4244d3 030b8b42 28d3030c  _....BD....B(...
 80000f4 8b420dd3 ff220902 12ba030c 8b4202d3  .B...".......B..
 8000104 12120902 65d0030b 8b4219d3 00e0090a  ....e....B......
 8000114 c30b8b42 01d3cb03 c01a5241 830b8b42  ...B......RA...B
 8000124 01d38b03 c01a5241 430b8b42 01d34b03  ......RAC..B..K.
 8000134 c01a5241 030b8b42 01d30b03 c01a5241  ..RA...B......RA
 8000144 c30a8b42 01d3cb02 c01a5241 830a8b42  ...B......RA...B
 8000154 01d38b02 c01a5241 430a8b42 01d34b02  ......RAC..B..K.
 8000164 c01a5241 030a8b42 01d30b02 c01a5241  ..RA...B......RA
 8000174 cdd2c309 8b4201d3 cb01c01a 52418309  .....B......RA..
 8000184 8b4201d3 8b01c01a 52414309 8b4201d3  .B......RAC..B..
 8000194 4b01c01a 52410309 8b4201d3 0b01c01a  K...RA...B......
 80001a4 5241c308 8b4201d3 cb00c01a 52418308  RA...B......RA..
 80001b4 8b4201d3 8b00c01a 52414308 8b4201d3  .B......RAC..B..
 80001c4 4b00c01a 5241411a 00d20146 52411046  K...RAA....FRA.F
 80001d4 7047ffe7 01b50020 00f0f0f8 02bdc046  pG..... .......F
 80001e4 0029f7d0 76e77047 03460b43 7fd40022  .)..v.pG.F.C..."
 80001f4 43088b42 74d30309 8b425fd3 030a8b42  C..Bt....B_....B
 8000204 44d3030b 8b4228d3 030c8b42 0dd3ff22  D....B(....B..."
 8000214 090212ba 030c8b42 02d31212 090265d0  .......B......e.
 8000224 030b8b42 19d300e0 090ac30b 8b4201d3  ...B.........B..
 8000234 cb03c01a 5241830b 8b4201d3 8b03c01a  ....RA...B......
 8000244 5241430b 8b4201d3 4b03c01a 5241030b  RAC..B..K...RA..
 8000254 8b4201d3 0b03c01a 5241c30a 8b4201d3  .B......RA...B..
 8000264 cb02c01a 5241830a 8b4201d3 8b02c01a  ....RA...B......
 8000274 5241430a 8b4201d3 4b02c01a 5241030a  RAC..B..K...RA..
 8000284 8b4201d3 0b02c01a 5241cdd2 c3098b42  .B......RA.....B
 8000294 01d3cb01 c01a5241 83098b42 01d38b01  ......RA...B....
 80002a4 c01a5241 43098b42 01d34b01 c01a5241  ..RAC..B..K...RA
 80002b4 03098b42 01d30b01 c01a5241 c3088b42  ...B......RA...B
 80002c4 01d3cb00 c01a5241 83088b42 01d38b00  ......RA...B....
 80002d4 c01a5241 43088b42 01d34b00 c01a5241  ..RAC..B..K...RA
 80002e4 411a00d2 01465241 10467047 5de0ca0f  A....FRA.FpG]...
 80002f4 00d04942 031000d3 40425340 00229c46  ..IB....@BS@.".F
 8000304 03098b42 2dd3030a 8b4212d3 fc228901  ...B-....B..."..
 8000314 12ba030a 8b420cd3 89019211 8b4208d3  .....B.......B..
 8000324 89019211 8b4204d3 89013ad0 921100e0  .....B....:.....
 8000334 8909c309 8b4201d3 cb01c01a 52418309  .....B......RA..
 8000344 8b4201d3 8b01c01a 52414309 8b4201d3  .B......RAC..B..
 8000354 4b01c01a 52410309 8b4201d3 0b01c01a  K...RA...B......
 8000364 5241c308 8b4201d3 cb00c01a 52418308  RA...B......RA..
 8000374 8b4201d3 8b00c01a 5241d9d2 43088b42  .B......RA..C..B
 8000384 01d34b00 c01a5241 411a00d2 01466346  ..K...RAA....FcF
 8000394 52415b10 104601d3 4042002b 00d54942  RA[..F..@B.+..IB
 80003a4 70476346 5b1000d3 404201b5 002000f0  pGcF[...@B... ..
 80003b4 05f802bd 0029f8d0 16e77047 7047c046  .....)....pGpG.F
 80003c4 0448054b 10b58342 03d0044b 002b00d0  .H.K...B...K.+..
 80003d4 984710bd 30000020 30000020 00000000  .G..0.. 0.. ....
 80003e4 06480749 091a8b10 c90fc918 10b54910  .H.I..........I.
 80003f4 03d0044b 002b00d0 984710bd 30000020  ...K.+...G..0.. 
 8000404 30000020 00000000 10b5074c 2378002b  0.. .......L#x.+
 8000414 09d1fff7 d5ff054b 002b02d0 044800e0  .......K.+...H..
 8000424 00bf0123 237010bd 30000020 00000000  ...##p..0.. ....
 8000434 88140008 054b10b5 002b03d0 04490548  .....K...+...I.H
 8000444 00e000bf fff7ccff 10bdc046 00000000  ...........F....
 8000454 34000020 88140008 0c488546 002103e0  4.. .....H.F.!..
 8000464 0b4b5b58 43500431 0a480b4b 42189a42  .K[XCP.1.H.KB..B
 8000474 f6d30a4a 02e00023 13600432 084b9a42  ...J...#.`.2.K.B
 8000484 f9d300f0 0ffe00f0 f1f9fee7 00100020  ............... 
 8000494 a8140008 00000020 30000020 30000020  ....... 0.. 0.. 
 80004a4 200a0020 fee70000 094b0a49 1a680a40   .. .....K.I.h.@
 80004b4 1a60b622 20219200 d8605a60 064a5160  .`." !...`Z`.JQ`
 80004c4 60315160 01221968 0a431a60 7047c046  `1Q`.".h.C.`pG.F
 80004d4 1c000240 feff0000 00000240 02680d4b  ...@.......@.h.K
 80004e4 10b51a40 0c6a8b68 23430c69 23434c69  ...@.j.h#C.i#CLi
 80004f4 23438c69 2343cc69 23434c6a 23438c6a  #C.i#C.i#CLj#C.j
 8000504 23431343 0360cb68 43600b68 83604b68  #C.C.`.hC`.h.`Kh
 8000514 c36010bd 0f80ffff 0c22f8b5 554d0400  .`......."..UM..
 8000524 6b681340 082b05d0 934253d0 524b0020  kh.@.+...BS.RK. 
 8000534 23600ce0 0f23c022 68686968 800c1840  #`...#."hhih...@
 8000544 5202861c 11423ed1 4c487043 20602168  R....B>.LHpC `!h
 8000554 6b680a00 4a4e1b06 1b0ff35c da406260  kh..JN.....\.@b`
 8000564 6b685b05 5b0ff35c da40a260 2b6bdb05  kh[.[..\.@.`+k..
 8000574 32d4444b 4026e360 2b6b3340 5e427341  2.DK@&.`+k3@^BsA
 8000584 12265b42 33408026 36029b19 23612b6b  .&[B3@.&6...#a+k
 8000594 db0628d5 0b006361 03232e6b 1e4224d1  ..(...ca.#.k.B$.
 80005a4 a261c023 2e6b9b02 1e4232d1 e261c023  .a.#.k...B2..a.#
 80005b4 2e6b1b03 1e4244d1 22622b6b 1b0600d4  .k...BD."b+k....
 80005c4 31486062 f8bde96a 2b481940 0131fff7  1H`b...j+H.@.1..
 80005d4 81fdbae7 2c4baae7 6b685b04 01d45308  ....,K..kh[...S.
 80005e4 c8e79308 c6e7244b d5e72e6b 1e40012e  ......$K...k.@..
 80005f4 01d1a161 d5e72e6b 1e40022e 03d18023  ...a...k.@.....#
 8000604 1b02a361 cde72e6b 3340032b c9d11a4b  ...a...k3@.+...K
 8000614 f7e78027 2e6b7f02 1e40be42 01d1e161  ...'.k...@.B...a
 8000624 c5e78027 2e6bbf02 1e40be42 03d18023  ...'.k...@.B...#
 8000634 1b02e361 bbe72e6b 1e409e42 b7d10e4b  ...a...k.@.B...K
 8000644 f7e78026 2a6bf602 1a40b242 01d12162  ...&*k...@.B..!b
 8000654 b3e78021 2a6b0903 1a408a42 03d18023  ...!*k...@.B...#
 8000664 1b022362 a9e72a6b 1a409a42 a5d1024b  ..#b..*k.@.B...K
 8000674 f7e7c046 00100240 00127a00 00093d00  ...F...@..z...=.
 8000684 11000020 809fd500 006cdc02 f7b50322  ... .....l....."
 8000694 00239446 01279f40 0a683a40 97422cd1  .#.F.'.@.h:@.B,.
 80006a4 64465d00 ac400a79 e443561e 0192012e  dF]..@.y.CV.....
 80006b4 11d88668 26408660 86683200 4e79ae40  ...h&@.`.h2.Ny.@
 80006c4 16438660 8688be43 86808f79 86889f40  .C.`...C...y...@
 80006d4 3e43b6b2 8680019a 0668aa40 34400460  >C.......h.@4@.`
 80006e4 04682243 6446ac40 0260c268 a243c260  .h"CdF.@.`.h.C.`
 80006f4 ca79c468 aa402243 c2600133 102bc9d1  .y.h.@"C.`.3.+..
 8000704 f7bdc046 c046c046 c046c046 c046c046  ...F.F.F.F.F.F.F
 8000714 c0467047 0121064b 1a888a43 1a800022  .FpG.!.K...C..."
 8000724 5a62044a 04491368 0b401360 7047c046  Zb.J.I.h.@.`pG.F
 8000734 002c0140 08000240 feff0000 802307b5  .,.@...@.....#..
 8000744 9b000022 00936b46 5a719a71 02231b1a  ..."..kFZq.q.#..
 8000754 90206a46 6946c005 1371fff7 97ff07bd  . jFiF...q......
 8000764 f8b59024 02278026 e4050500 0120fff7  ...$.'.&..... ..
 8000774 e5ffb600 a761fff7 c4ffa661 fff7c1ff  .....a.....a....
 8000784 2785fff7 beff2685 0020fff7 d7ff0423  '.....&.. .....#
 8000794 0b4a0c48 91680b43 93600023 0a494b62  .J.H.h.C.`.#.IKb
 80007a4 0a4b1a68 02401a60 8022dd60 5a601868  .K.h.@.`.".`Z`.h
 80007b4 7f3a1043 18600b88 1a430a80 f8bdc046  .:.C.`...C.....F
 80007c4 00240140 feff0000 002c0140 08000240  .$.@.....,.@...@
 80007d4 10b5154c 2378d8b2 032b0fd8 fff770fc  ...L#x...+....p.
 80007e4 020f1b1d 90221823 d205918a 0b439382  .....".#.....C..
 80007f4 0e4b1868 fff7b4ff 01232370 10bd9022  .K.h.....##p..."
 8000804 1821d205 938a8b43 9382094b 1868fff7  .!.....C...K.h..
 8000814 a7ff0323 f1e7054b f8e70423 00222370  ...#...K...#."#p
 8000824 044b1a70 eae7c046 54040020 2c000020  .K.p...FT.. ,.. 
 8000834 28000020 57040020 10b5084c 23689b07  (.. W.. ...L#h..
 8000844 03d5fff7 67fffff7 c3ff0823 22681a42  ....g......#"h.B
 8000854 00d06360 01236360 10bdc046 00000240  ..c`.#c`...F...@
 8000864 70477047 70477047 fee70000 0122f0b5  pGpGpGpG....."..
 8000874 ed4cee49 2368a020 13432360 6368d5b0  .L.I#h. .C#`ch..
 8000884 0b406360 2368ea49 c0010b40 23602368  .@c`#h.I...@#`#h
 8000894 e8490b40 23606368 e7490b40 0f216360  .I.@#`ch.I.@.!c`
 80008a4 e36a8b43 e362236b e4490b40 2363636b  .j.C.b#k.I.@#cck
 80008b4 e3499343 63630023 a3600b70 0a708021  .I.Ccc.#.`.p.p.!
 80008c4 06938902 2368069a 0b400132 0692069a  ....#h...@.2....
 80008d4 824201d0 002bf5d0 23680122 9b033fd5  .B...+..#h."..?.
 80008e4 1021d84b 18680143 19601968 91430a43  .!.K.h.C.`.h.C.C
 80008f4 1a60f022 63689343 63606368 d24a1340  .`."ch.Cc`ch.J.@
 8000904 63606368 d14a1340 63608823 62685b03  c`ch.J.@c`.#bh[.
 8000914 13436360 80232268 5b041343 23608023  .Cc`.#"h[..C#`.#
 8000924 9b042268 1a42fcd0 03226368 0c219343  .."h.B..."ch.!.C
 8000934 1a000223 13436360 62680a40 082afbd1  ...#.Cc`bh.@.*..
 8000944 6368c34e 0b40082b 00d104e3 c14b3360  ch.N.@.+.....K3`
 8000954 6368c14a 1b061b0f d35c3268 da403260  ch.J.....\2h.@2`
 8000964 14a8fff7 d9fd159b 0aa80093 0593fff7  ................
 8000974 d3fdfa21 0b988900 fff7acfb 80230138  ...!.........#.8
 8000984 5b049842 0dd2c021 b44a0906 5060b448  [..B...!.J..P`.H
 8000994 036a1b02 1b0a0b43 03620023 93600733  .j.....C.b.#.`.3
 80009a4 13600126 a3699025 3343a361 c0230227  .`.&.i.%3C.a.#.'
 80009b4 6269db02 ed051343 63612800 14a91497  bi.....Cca(.....
 80009c4 1596fff7 63fe3000 fff7b8fe f0226b6a  ....c.0......"kj
 80009d4 04a99343 6b622023 6a6a2800 13434422  ...Ckb #jj(..CD"
 80009e4 6b620323 89180b70 14a91496 fff74efe  kb.#...p......N.
 80009f4 18234422 149304ab 9b182800 14a91e70  .#D"......(....p
 8000a04 fff744fe 4422974d 04ab9b18 14a92800  ..D.D".M......(.
 8000a14 14971e70 fff73afe ab8a14a8 1f43af82  ...p..:......C..
 8000a24 fff77afd 159b9049 18000093 fff752fb  ..z....I......R.
 8000a34 fa239b00 43430793 079b002b 00d09fe2  .#..CC.....+....
 8000a44 80236269 9b021343 63618023 a269db01  .#bi...Cca.#.i..
 8000a54 13430322 9020a361 236bc005 93432363  .C.". .a#k...C#c
 8000a64 226b824b 08a91343 2363036a 804a814e  "k.K...C#c.j.J.N
 8000a74 13400362 8023026a 5b001343 03620423  .@.b.#.j[..C.b.#
 8000a84 08937d4b 7d4d0993 fff700fe 01223368  ..}K}M......."3h
 8000a94 14a89343 33607368 794a1340 73603368  ...C3`shyJ.@s`3h
 8000aa4 784a1a40 08231343 3360b368 2b40b360  xJ.@.#.C3`.h+@.`
 8000ab4 fff732fd 33681a9f 01951b04 00d57f00  ..2.3h..........
 8000ac4 e1213800 4902fff7 05fbe121 05004902  .!8.I......!..I.
 8000ad4 3800fff7 85fbe122 00231202 91425b41  8......".#...B[A
 8000ae4 ed183368 1b0404d5 67482b07 5b0f0540  ..3h....gH+.[..@
 8000af4 1d438022 adb2b581 01258021 b3680901  .C.".....%.!.h..
 8000b04 1343b360 33686148 2b433360 a369c026  .C.`3haH+C3`.i.&
 8000b14 0b43a361 e3685e4f 0b43e360 e3685d49  .C.a.h^O.C.`.h]I
 8000b24 0340e360 4a4bf601 1b681800 0293fff7  .@.`JK...h......
 8000b34 d1fa594b 00901a88 411e5848 02401a80  ..YK....A.XH.@..
 8000b44 0022d962 10211a85 1a869d82 1a8c8a43  .".b.!.........C
 8000b54 1a841a8c 9888198b 39403143 e026b243  ........9@1C.&.C
 8000b64 b03e3243 4e4e3040 98801983 0a219963  .>2CNN0@.....!.c
 8000b74 1a841a8c 4b490098 0a401a84 1e8c9988  ....KI...@......
 8000b84 b446c026 9a8bf601 17403e43 6746464a  .F.&.....@>CgFFJ
 8000b94 0b383a40 c027bf01 3a43444f 39409980  .8:@.'..:CDO9@..
 8000ba4 80219e83 18641a84 1a8b3848 09010240  .!...d....8H...@
 8000bb4 0a431a83 9a8b0240 0a438021 9a831a88  .C.....@.C.!....
 8000bc4 0a438021 1a803a4a 0902d38f 0b43d387  .C.!..:J.....C..
 8000bd4 8023a269 9b001343 a3616368 35491f40  .#.i...C.ach5I.@
 8000be4 80236760 6268db01 13436360 236b324a  .#g`bh...Cc`#k2J
 8000bf4 13402363 8023226b 5b001343 23632f4b  .@#c.#"k[..C#c/K
 8000c04 da681140 8822d200 0a43da60 9a6a0221  .h.@."...C.`.j.!
 8000c14 2a439a62 00225a61 da688a43 da60da68  *C.b."Za.h.C.`.h
 8000c24 da60da68 2a434be0 00100240 0cb8ff08  .`.h*CK....@....
 8000c34 fffff6fe fffffbff ffffc0ff acfef0ff  ................
 8000c44 02100240 00200240 fff8ffff ff7fc2ff  ...@. .@........
 8000c54 24000020 00127a00 00000020 10e000e0  $.. ..z.... ....
 8000c64 00ed00e0 00040048 10270000 01000010  .......H.'......
 8000c74 fff0ffff 00380140 02030000 fffcffff  .....8.@........
 8000c84 ffcfffff f3e9ffff f0ff0000 fff7ffff  ................
 8000c94 ff8cffff 00530700 002c0140 8ffcffff  .....S...,.@....
 8000ca4 fff3ffff ffefffff ffdfffff ffbfffff  ................
 8000cb4 062c0140 03d2ffff fffeffff 00240140  .,.@.........$.@
 8000cc4 da609a68 2a439a60 00951a68 00991140  .`.h*C.`...h...@
 8000cd4 03910099 0a42f8d0 04219a68 d54e0a43  .....B...!.h.N.C
 8000ce4 9a606369 009a0027 13436361 3368d24a  .`ci...'.Cca3h.J
 8000cf4 d2491340 33600f23 37607760 b760f760  .I.@3`.#7`w`.`.`
 8000d04 4a6814ad 13434b60 cd4b2900 1493cd4b  Jh...CK`.K)....K
 8000d14 30006b60 8023eb60 6b61db18 ab618023  0.k`.#.`ka...a.#
 8000d24 db00eb61 c0239b01 af602f61 2f626b62  ...a.#...`/a/bkb
 8000d34 af62fff7 d3fb3368 00982900 03433360  .b....3h..)..C3`
 8000d44 c148fff7 cbfb0220 c2213368 89000343  .H..... .!3h...C
 8000d54 be483360 4258be4b b74e1a40 8023db01  .H3`BX.K.N.@.#..
 8000d64 13434350 8023f021 9b000360 6369009a  .CCP.#.!...`ci..
 8000d74 b5481343 b44a6361 13683340 13601760  .H.C.Jca.h3@.`.`
 8000d84 57609760 d760ad4a 80265368 0b435360  W`.`.`.J.&Sh.CS`
 8000d94 b04b0a22 14938023 9b056b60 1023ab60  .K."...#..k`.#.`
 8000da4 80235b01 6b62ac4b 2f616e61 af61ef61  .#[.kb.K/ana.a.a
 8000db4 2f62af62 ea601a68 8a431a60 1a682900  /b.b.`.h.C.`.h).
 8000dc4 32431a60 fff78afb 8023a269 db021343  2C.`.....#.i...C
 8000dd4 a3611496 9026a14b f6052900 30001593  .a...&.K..).0...
 8000de4 fff754fc 336a0298 1b011b09 3362a023  ..T.3j......3b.#
 8000df4 326adb05 13433362 9949fff7 6bf90138  2j...C3b.I..k..8
 8000e04 83b29c46 974b0199 1a88974e 0a401a80  ...F.K.....N.@..
 8000e14 6246de62 1a85009a 1f869a82 1a8c0099  bF.b............
 8000e24 8a431a84 f322198b 188c9143 023a1143  .C...".....C.:.C
 8000e34 19830c21 e73a9043 073a0243 1a841a8b  ...!.:.C.:.C....
 8000e44 82488a43 1a831a8b 0a3992b2 1a830322  .H.C.....9....."
 8000e54 52421a82 9a890a43 9a81c522 92008158  RB.....C..."...X
 8000e64 82480840 c0210904 01437848 81508021  .H.@.!...CxH.P.!
 8000e74 c9030160 80201988 01431980 19880098  ...`. ...C......
 8000e84 01431980 8023a169 9b021943 a161e168  .C...#.i...C.a.h
 8000e94 0b43e360 e3687649 0b40e360 754b019c  .C.`.hvI.@.`uK..
 8000ea4 19882140 64461980 de627326 1c85009c  ..!@dF...bs&....
 8000eb4 1f869c82 198c009c 0237a143 1984198c  .........7.C....
 8000ec4 98881c8b b443693e b143ee89 31430426  .....Ci>.C..1C.&
 8000ed4 b143ae88 39433143 019e3040 2e8a6d8a  .C..9C1C..0@..m.
 8000ee4 2e433043 98806420 80261c83 58631984  .C0C..d .&..Xc..
 8000ef4 19885c38 31431980 198b544c 81430143  ..\81C....TL.C.C
 8000f04 19830321 49421982 99893943 9981a158  ...!IB....9C...X
 8000f14 4f4b1940 c0231b02 0b43a350 80239b03  OK.@.#...C.P.#..
 8000f24 23600290 544b5548 1b78554c 554a0193  #`..TKUH.xULUJ..
 8000f34 03889bb2 00932378 042bf9d1 1178cbb2  ......#x.+...x..
 8000f44 0029f5d1 00990800 b4214900 88421ad3  .).......!I..B..
 8000f54 01231370 e6e70f23 c0226568 6168ad0c  .#.p...#."ehah..
 8000f64 1d405202 02351142 03d14748 45433560  .@R..5.B..GHEC5`
 8000f74 eee4e16a 45481940 0131fff7 abf8f5e7  ...jEH.@.1......
 8000f84 079b013b 57e5424a 1f001568 414a14a9  ...;W.BJ...hAJ..
 8000f94 16681a00 d0b25400 8446285b 345ba042  .h....T..F([4[.B
 8000fa4 3bd9001b 08800888 874201d2 07006346  ;........B....cF
 8000fb4 01320231 802aedd1 0299132b 00d80321  .2.1.*.....+...!
 8000fc4 354a1170 0a1c9942 00d21a1c d3b27f22  5J.p...B......."
 8000fd4 521a9342 00ddd3b2 ca185b1a 00210800  R..B......[..!..
 8000fe4 d2b2dbb2 14addcb2 a24218d8 002904d0  .........B...)..
 8000ff4 64235843 fff76ef8 0100312f 00d80399  d#XC..n...1/....
 8001004 009b019a 043389b2 5b00002a 0fd1234a  .....3..[..*..#J
 8001014 d1520122 1b4b1a70 84e70020 c2e75c00  .R.".K.p... ..\.
 8001024 645b2600 5e430919 80190133 dbe71c4a  d[&.^C.....3...J
 8001034 eee7c046 08000240 feff0000 00000240  ...F...@.......@
 8001044 40240140 52000020 1c000240 00e100e0  @$.@R.. ...@....
 8001054 ff00ffff 28380140 a8000240 02000001  ....(8.@...@....
 8001064 50c30000 00480140 ffff0000 ffff00ff  P....H.@........
 8001074 fffffdff 00440140 080a0020 4c000020  .....D.@... L.. 
 8001084 54040020 57040020 00093d00 00127a00  T.. W.. ..=...z.
 8001094 28000020 2c000020 10000020 58040020  (.. ,.. ... X.. 
 80010a4 30070020 13b50121 364b3748 1a68a024  0.. ...!6K7H.h.$
 80010b4 0a431a60 5a68e401 02405a60 1a683348  .C.`Zh...@Z`.h3H
 80010c4 02401a60 1a683248 02401a60 5a683148  .@.`.h2H.@.`Zh1H
 80010d4 02400f20 5a60da6a 8243da62 1a6b2e48  .@. Z`.j.C.b.k.H
 80010e4 02401a63 5a6b8020 8a435a63 00229a60  .@.cZk. .CZc.".`
 80010f4 00920192 80221968 52028002 0a430100  .....".hR....C..
 8001104 1a601a68 02400192 009a0132 0092019a  .`.h.@.....2....
 8001114 002a02d1 009aa242 f3d11a68 10000840  .*.....B...h...@
 8001124 0a422cd0 01220192 019a012a 26d11121  .B,..".....*&..!
 8001134 1a4a1160 5a681a49 5a605a68 5a605a68  .J.`Zh.IZ`ZhZ`Zh
 8001144 0a405a60 88225968 52030a43 5a608022  .@Z`."YhR..CZ`."
 8001154 19685204 0a431a60 80229204 19681142  .hR..C.`."...h.B
 8001164 fcd00321 5a688a43 5a600222 59680a43  ...!Zh.CZ`."Yh.C
 8001174 0c215a60 5a680a40 082afbd1 13bd0190  .!Z`Zh.@.*......
 8001184 d2e7c046 00100240 0cb8ff08 fffff6fe  ...F...@........
 8001194 fffffbff ffffc0ff acfeffff 00200240  ............. .@
 80011a4 ff7fc0ff 0222f8b5 744f398a bb899bb2  ....."..tO9.....
 80011b4 114260d0 13425ed0 0323714a 5b423b82  .B`..B^..#qJ[B;.
 80011c4 13887049 9bb20b80 7b6b6f4e 9bb21380  ..pI....{koN....
 80011d4 0b881088 99b28342 4ed81388 df225b1a  .......BN...."[.
 80011e4 9bb23380 31880223 684d5200 914246d2  ..3.1..#hMR..BF.
 80011f4 a98a0b43 ab820123 3280654a 16211370  ...C...#2.eJ.!.p
 8001204 308880b2 fef766ff 624b80b2 1880624b  0.....f.bK....bK
 8001214 614a1b78 61490133 dbb21370 16231278  aJ.xaI.3...p.#.x
 8001224 53435f4a 13805b4b 0a781888 5d4b5400  SC_J..[K.x..]KT.
 8001234 80b2e052 03240132 22400a70 5a881988  ...R.$.2"@.pZ...
 8001244 80008918 9a88db88 8918c918 891080b2  ................
 8001254 002903d0 89b2fef7 3dff80b2 524c0428  .)......=...RL.(
 8001264 12d84c4b 1b88013b 9bb25a00 5b0492b2  ..LK...;..Z.[...
 8001274 5b0ce262 6363f8bd 1388013b aee7aa8a  [..bcc.....;....
 8001284 9a43aa82 0023b8e7 33881621 5b083380  .C...#..3..![.3.
 8001294 308880b2 fef71eff 3e4b80b2 1880434b  0.......>K....CK
 80012a4 43491a88 434e92b2 0a807a6b 92b21a80  CI..CN....zk....
 80012b4 09881888 8ab28142 56d81888 801a3221  .......BV.....2!
 80012c4 fef792ff 344b80b2 30801b78 3a4f0f2b  ....4K..0..x:O.+
 80012d4 4fd00123 3b70aa8a db181343 ab82fff7  O..#;p.....C....
 80012e4 19fa0021 354b364a 19700123 15783548  ...!5K6J.p.#.x5H
 80012f4 6b401370 b6229200 012d00d0 324800f0  k@.p."...-..2H..
 8001304 b9f83b78 002b13d1 214b3049 1b782e48  ..;x.+..!K0I.x.H
 8001314 5a1e9341 80221202 13432d4a 012d00d0  Z..A."...C-J.-..
 8001324 28480180 42808380 3388c380 fff7bcf8  (H..B...3.......
 8001334 00210122 184b3970 1970194b 1980154b  .!.".K9p.p.K...K
 8001344 1b882088 013b9bb2 90432080 61625900  .. ..;...C .abY.
 8001354 5b045b0c 89b2e162 6363a38a 1343a382  [.[....bcc...C..
 8001364 23881a43 228086e7 18881a4b 801ac018  #..C"......K....
 8001374 a5e70222 ab8a9343 b0e7c046 00480140  ..."...C...F.H.@
 8001384 4e000020 50000020 52040020 00040048  N.. P.. R.. ...H
 8001394 55040020 0e0a0020 090a0020 56040020  U.. ... ... V.. 
 80013a4 4c000020 100a0020 00440140 1a0a0020  L.. ... .D.@... 
 80013b4 1c0a0020 0a0a0020 0c0a0020 54040020  ... ... ... T.. 
 80013c4 080a0020 58040020 30070020 aabbffff  ... X.. 0.. ....
 80013d4 ccddffff ffff0000 022110b5 1a4b188a  .........!...K..
 80013e4 9a8992b2 084229d0 0a4227d0 0320174a  .....B)..B'.. .J
 80013f4 40421082 1a8a8a43 1a82b322 144b5200  @B.....C...".KR.
 8001404 19889142 1ad80021 124a1170 1a880131  ...B...!.J.p...1
 8001414 013292b2 1a801a88 013292b2 1a800e4b  .2.......2.....K
 8001424 1a784a40 1a701878 0c4a0d4b 084206d0  .xJ@.p.x.J.K.B..
 8001434 0c491160 0c4a1a60 fff7caf9 10bd0b49  .I.`.J.`.......I
 8001444 11600b4a f7e7c046 00440140 00480140  .`.J...F.D.@.H.@
 8001454 4c000020 54040020 180a0020 28000020  L.. T.. ... (.. 
 8001464 2c000020 52000020 52020020 52010020  ,.. R.. R.. R.. 
 8001474 52030020 03008218 934200d1 70471970  R.. .....B..pG.p
 8001484 0133f9e7 f8b5c046 f8bc08bc 9e467047  .3.....F.....FpG
 8001494 f8b5c046 f8bc08bc 9e467047           ...F.....FpG    
Contents of section .init_array:
 80014a0 39040008                             9...            
Contents of section .fini_array:
 80014a4 0d040008                             ....            
Contents of section .data:
 20000000 00000000 00000000 01020304 06070809  ................
 20000010 08000000 00010203 04010203 04060708  ................
 20000020 09000000 006cdc02 52000020 52020020  .....l..R.. R.. 
Contents of section .ARM.attributes:
 0000 41290000 00616561 62690001 1f000000  A)...aeabi......
 0010 0536532d 4d00060c 074d0901 12041401  .6S-M....M......
 0020 15011703 18011a01 1e02               ..........      
Contents of section .comment:
 0000 4743433a 2028626c 65656469 6e672d65  GCC: (bleeding-e
 0010 6467652d 746f6f6c 63686169 6e292039  dge-toolchain) 9
 0020 2e332e30 00                          .3.0.           
Contents of section .debug_info:
 0000 4a0e0000 04000000 00000401 27040000  J...........'...
 0010 0c870100 008e0600 00000000 00000000  ................
 0020 00000000 00020405 696e7400 03360000  ........int..6..
 0030 0002d117 38000000 04040799 00000005  ....8...........
 0040 8c030000 02410118 38000000 0408051c  .....A..8.......
 0050 01000004 0804cf03 00000520 04000002  ........... ....
 0060 5e011738 00000004 0106e304 00000401  ^..8............
 0070 08e10400 00040205 f5040000 0402073f  ...............?
 0080 03000004 04052101 00000404 07940000  ......!.........
 0090 00040807 8f000000 03190400 00032e0e  ................
 00a0 83000000 03f40500 0003740e 83000000  ..........t.....
 00b0 060403a5 03d20000 00077303 000003a7  ..........s.....
 00c0 0c5a0000 0007ec02 000003a8 13d20000  .Z..............
 00d0 0000086e 000000e2 00000009 38000000  ...n........8...
 00e0 03000a08 03a20906 0100000b ce050000  ................
 00f0 03a40725 00000000 0bdd0500 0003a905  ...%............
 0100 b0000000 04000317 05000003 aa03e200  ................
 0110 00000c04 03790600 00041619 8a000000  .....y..........
 0120 03840300 00052219 2c010000 0d043201  ......".,.....2.
 0130 00000ed6 05000003 85020000 04231b20  .............#. 
 0140 0100000f 96020000 18043408 9d010000  ..........4.....
 0150 0b430500 00043613 9d010000 00105f6b  .C....6......._k
 0160 00043707 25000000 040bae05 00000437  ..7.%..........7
 0170 0b250000 00080b39 03000004 37142500  .%.....9....7.%.
 0180 00000c0b 38070000 04371b25 00000010  ....8....7.%....
 0190 105f7800 04380ba3 01000014 000d0443  ._x..8.........C
 01a0 01000008 14010000 b3010000 09380000  .............8..
 01b0 0000000f c3020000 24043c08 36020000  ........$.<.6...
 01c0 0bfe0000 00043e09 25000000 000b1306  ......>.%.......
 01d0 0000043f 09250000 00040b36 01000004  ...?.%.....6....
 01e0 40092500 0000080b c6070000 04410925  @.%..........A.%
 01f0 0000000c 0be20300 00044209 25000000  ..........B.%...
 0200 100ba303 00000443 09250000 00140b3d  .......C.%.....=
 0210 07000004 44092500 0000180b ff040000  ....D.%.........
 0220 04450925 0000001c 0b770700 00044609  .E.%.....w....F.
 0230 25000000 20001145 01000008 01044f08  %... ..E......O.
 0240 7b020000 0b410200 0004500a 7b020000  {....A....P.{...
 0250 000b0000 00000451 097b0200 0080124c  .......Q.{.....L
 0260 06000004 530a1401 00000001 121e0000  ....S...........
 0270 0004560a 14010000 04010008 12010000  ..V.............
 0280 8b020000 09380000 001f000f 31060000  .....8......1...
 0290 8c045a08 cd020000 0b430500 00045b12  ..Z......C....[.
 02a0 cd020000 000b6d05 0000045c 06250000  ......m....\.%..
 02b0 00040b50 02000004 5d09d302 0000080b  ...P....].......
 02c0 c8020000 045e20ea 02000088 000d048b  .....^ .........
 02d0 02000008 e3020000 e3020000 09380000  .............8..
 02e0 001f000d 04e90200 00130d04 36020000  ............6...
 02f0 0f090500 0008047a 08180300 000b3001  .......z......0.
 0300 0000047b 11180300 00000b30 00000004  ...{.......0....
 0310 7c062500 00000400 0d046e00 00000f22  |.%.......n...."
 0320 05000068 04ba0861 04000010 5f700004  ...h...a...._p..
 0330 bb121803 00000010 5f720004 bc072500  ........_r....%.
 0340 00000410 5f770004 bd072500 0000080b  ...._w....%.....
 0350 80010000 04be0975 0000000c 0b1b0300  .......u........
 0360 0004bf09 75000000 0e105f62 660004c0  ....u....._bf...
 0370 11f00200 00100ba6 00000004 c1072500  ..............%.
 0380 0000180b 63000000 04c412a4 0500001c  ....c...........
 0390 0b530100 0004c80a 12010000 200bb302  .S.......... ...
 03a0 000004ca 1ddf0500 00240b9c 03000004  .........$......
 03b0 cc1d0906 0000280b e5050000 04cf0d2d  ......(........-
 03c0 0600002c 0b910700 0004d009 47060000  ...,........G...
 03d0 30105f75 620004d3 11f00200 0034105f  0._ub........4._
 03e0 75700004 d4121803 00003c10 5f757200  up........<._ur.
 03f0 04d50725 00000040 0b2a0100 0004d811  ...%...@.*......
 0400 4d060000 440b7107 000004d9 115d0600  M...D.q......]..
 0410 0047105f 6c620004 dc11f002 0000480b  .G._lb........H.
 0420 e5010000 04df0725 00000050 0b1a0200  .......%...P....
 0430 0004e00a 98000000 540bd705 000004e7  ........T.......
 0440 0c370100 00580b35 05000004 e90e0601  .7...X.5........
 0450 00005c0b 94030000 04ea0925 00000064  ..\........%...d
 0460 00145a06 00006004 790108a4 05000015  ..Z...`.y.......
 0470 0c060000 047d0107 25000000 0015de01  .....}..%.......
 0480 00000482 010bb906 00000415 05030000  ................
 0490 04820114 b9060000 08158e02 00000482  ................
 04a0 011eb906 00000c15 68050000 04840108  ........h.......
 04b0 25000000 10154500 00000486 0109cd05  %.....E.........
 04c0 00001415 0e040000 04880107 25000000  ............%...
 04d0 18158305 0000048a 01072500 00001c15  ..........%.....
 04e0 16000000 048b0116 a3080000 20165f6d  ............ ._m
 04f0 7000048d 0112a908 00002415 79050000  p.........$.y...
 0500 048f010a ba080000 28159e02 00000491  ........(.......
 0510 01072500 00002c15 13030000 04940107  ..%...,.........
 0520 25000000 30151202 00000495 0109cd05  %...0...........
 0530 00003415 a4070000 04970113 c0080000  ..4.............
 0540 38158207 00000498 0110c608 00003c15  8.............<.
 0550 5e030000 04990109 cd050000 40155707  ^...........@.W.
 0560 0000049c 010cd708 00004415 5b010000  ..........D.[...
 0570 04a40110 7a060000 48154001 000004a5  ....z...H.@.....
 0580 010bb906 00005415 bb030000 04a60117  ......T.........
 0590 e3080000 58155203 000004a7 0109cd05  ....X.R.........
 05a0 00005c00 0d046104 000017a4 05000018  ..\...a.........
 05b0 25000000 cd050000 19a40500 00191201  %...............
 05c0 000019cd 05000019 25000000 000d04d3  ........%.......
 05d0 05000004 0108ea04 000017d3 0500000d  ................
 05e0 04af0500 00182500 00000306 000019a4  ......%.........
 05f0 05000019 12010000 19030600 00192500  ..............%.
 0600 0000000d 04da0500 000d04e5 05000018  ................
 0610 a4000000 2d060000 19a40500 00191201  ....-...........
 0620 000019a4 00000019 25000000 000d040f  ........%.......
 0630 06000018 25000000 47060000 19a40500  ....%...G.......
 0640 00191201 0000000d 04330600 00086e00  .........3....n.
 0650 00005d06 00000938 00000002 00086e00  ..]....8......n.
 0660 00006d06 00000938 00000000 00051005  ..m....8........
 0670 00000424 011a1e03 00001447 0700000c  ...$.......G....
 0680 04280108 b3060000 15430500 00042a01  .(.......C....*.
 0690 11b30600 0000152a 03000004 2b010725  .......*....+..%
 06a0 00000004 15ef0400 00042c01 0bb90600  ..........,.....
 06b0 0008000d 047a0600 000d046d 06000014  .....z.....m....
 06c0 3d000000 18044401 08060700 0015b605  =.....D.........
 06d0 00000445 01120607 00000015 39060000  ...E........9...
 06e0 04460112 06070000 06157406 00000447  .F........t....G
 06f0 01127c00 00000c15 3e050000 044a0124  ..|.....>....J.$
 0700 91000000 1000087c 00000016 07000009  .......|........
 0710 38000000 02001479 01000010 045d0108  8......y.....]..
 0720 5d070000 156b0300 00046001 139d0100  ]....k....`.....
 0730 000015b9 02000004 61010725 00000004  ........a..%....
 0740 15b70700 00046201 139d0100 000815a7  ......b.........
 0750 04000004 6301145d 0700000c 000d049d  ....c..]........
 0760 01000014 55060000 50046701 080c0800  ....U...P.g.....
 0770 00153f06 0000046a 0109cd05 00000015  ..?....j........
 0780 5b050000 046b010e 06010000 0415ba04  [....k..........
 0790 0000046c 010e0601 00000c15 a9070000  ...l............
 07a0 046d010e 06010000 14154d07 0000046e  .m........M....n
 07b0 01080c08 00001c15 81060000 046f0107  .............o..
 07c0 25000000 24153302 00000470 010e0601  %...$.3....p....
 07d0 00002815 d0000000 0471010e 06010000  ..(......q......
 07e0 30152202 00000472 010e0601 00003815  0."....r......8.
 07f0 6f000000 0473010e 06010000 40157e00  o....s......@.~.
 0800 00000474 010e0601 00004800 08d30500  ...t......H.....
 0810 001c0800 00093800 00000700 11b80000  ......8.........
 0820 006c0106 b208a308 00000b03 07000006  .l..............
 0830 b40b6b0d 0000000b 72050000 06b50ba5  ..k.....r.......
 0840 0d0000e0 0b490200 0006b70b d40d0000  .....I..........
 0850 e40baf00 000006b9 0a250000 00e80b26  .........%.....&
 0860 00000006 ba0bcd05 0000ec0b 69000000  ............i...
 0870 06bb1245 090000f0 12790300 0006bd0b  ...E.....y......
 0880 da0d0000 280112c1 03000006 be0bea0d  ....(...........
 0890 00002a01 12020200 0006bf0b ea0d0000  ..*.............
 08a0 4a01000d 041c0800 000d0416 0700001a  J...............
 08b0 ba080000 19a40500 00000d04 af080000  ................
 08c0 0d04bf06 00000d04 b3010000 1ad70800  ................
 08d0 00192500 0000000d 04dd0800 000d04cc  ..%.............
 08e0 0800000d 04630700 00086d06 0000f908  .....c....m.....
 08f0 00000938 00000002 001b4001 000004ab  ...8......@.....
 0900 010fe908 00001b25 07000004 330317a4  .......%....3...
 0910 0500001b 1e070000 0434031d aa050000  .........4......
 0920 1b2a0600 00044603 18cd0200 001cf103  .*....F.........
 0930 00000767 0ecd0500 00031805 00000856  ...g...........V
 0940 14060100 000f6900 00003809 2a088b0a  ......i...8.*...
 0950 00000bf7 02000009 2c09cd05 0000000b  ........,.......
 0960 a0050000 092d09cd 05000004 0b7c0200  .....-.......|..
 0970 00092e09 cd050000 080bee00 0000092f  .............../
 0980 09cd0500 000c0bfc 05000009 3009cd05  ............0...
 0990 0000100b f3020000 093109cd 05000014  .........1......
 09a0 0b9c0500 00093209 cd050000 180b7802  ......2.......x.
 09b0 00000933 09cd0500 001c0bad 03000009  ...3............
 09c0 3409cd05 0000200b 31030000 093509cd  4..... .1....5..
 09d0 05000024 0b610700 00093608 d3050000  ...$.a....6.....
 09e0 280b6507 00000937 08d30500 00290bde  (.e....7.....)..
 09f0 02000009 3808d305 00002a0b ff030000  ....8.....*.....
 0a00 093908d3 0500002b 0bc00500 00093a08  .9.....+......:.
 0a10 d3050000 2c0b5400 0000093b 08d30500  ....,.T....;....
 0a20 002d0b6c 02000009 3c08d305 00002e0b  .-.l....<.......
 0a30 12070000 093d08d3 0500002f 0bbc0500  .....=...../....
 0a40 00093e08 d3050000 300b5000 0000093f  ..>.....0.P....?
 0a50 08d30500 00310b0e 07000009 4008d305  .....1......@...
 0a60 0000320b da020000 094108d3 05000033  ..2......A.....3
 0a70 0bfb0300 00094208 d3050000 340b6802  ......B.....4.h.
 0a80 00000943 08d30500 0035000f 2a050000  ...C.....5..*...
 0a90 08063908 b30a0000 0b0a0200 00063b0f  ..9...........;.
 0aa0 03060000 000b7903 0000063c 0f030600  ......y....<....
 0ab0 00040017 8b0a0000 1c630100 00064220  .........c....B 
 0ac0 b30a0000 0ff40100 003c0644 08950b00  .........<.D....
 0ad0 000bee00 00000646 0f030600 00000bfc  .......F........
 0ae0 05000006 470f0306 0000040b f3020000  ....G...........
 0af0 06480f03 06000008 0b9c0500 0006490f  .H............I.
 0b00 03060000 0c0b7802 0000064a 0f030600  ......x....J....
 0b10 00100bad 03000006 4b0f0306 0000140b  ........K.......
 0b20 31030000 064c0f03 06000018 0b610700  1....L.......a..
 0b30 00064d0f 03060000 1c0b6507 0000064e  ..M.......e....N
 0b40 0f030600 00200bde 02000006 4f0f0306  ..... ......O...
 0b50 0000240b ff030000 06500f03 06000028  ..$......P.....(
 0b60 0bc00500 0006510f 03060000 2c0b5400  ......Q.....,.T.
 0b70 00000652 0f030600 00300b6c 02000006  ...R.....0.l....
 0b80 530f0306 0000340b 12070000 06540f03  S.....4......T..
 0b90 06000038 0017c40a 00001c61 06000006  ...8.......a....
 0ba0 6523950b 00000fc3 0000000c 066708db  e#...........g..
 0bb0 0b00000b f7020000 06690f03 06000000  .........i......
 0bc0 0ba00500 00066a0f 03060000 040b7c02  ......j.......|.
 0bd0 0000066b 0f030600 00080017 a60b0000  ...k............
 0be0 1c0c0000 00067222 db0b0000 0f070100  ......r"........
 0bf0 00fc0674 08d70c00 00106d6f 6e000676  ...t......mon..v
 0c00 0fdc0c00 00000bc0 07000006 770fdc0c  ............w...
 0c10 0000300b 42070000 06780fec 0c000060  ..0.B....x.....`
 0c20 0b530500 0006790f ec0c0000 7c0bad02  .S....y.....|...
 0c30 0000067a 0f030600 00980beb 03000006  ...z............
 0c40 7b0f0306 00009c0b 0d030000 067c0f03  {............|..
 0c50 060000a0 0b730100 00067d0f fc0c0000  .....s....}.....
 0c60 a40b2103 0000067e 0f030600 00ac0bbc  ..!....~........
 0c70 07000006 7f0fdc0c 0000b00b b1040000  ................
 0c80 06800f03 060000e0 0beb0500 0006810f  ................
 0c90 03060000 e4106572 61000682 0f030600  ......era.......
 0ca0 00e80bd7 04000006 830f0306 0000ec0b  ................
 0cb0 98070000 06840f03 060000f0 0b490500  .............I..
 0cc0 0006850f 03060000 f40b1101 00000686  ................
 0cd0 0f030600 00f80017 ec0b0000 08030600  ................
 0ce0 00ec0c00 00093800 00000b00 08030600  ......8.........
 0cf0 00fc0c00 00093800 00000600 08030600  ......8.........
 0d00 000c0d00 00093800 00000100 1cdf0000  ......8.........
 0d10 00069a1f d70c0000 0f1c0600 0010069c  ................
 0d20 085a0d00 000bcf04 0000069e 0f030600  .Z..............
 0d30 00000bdb 03000006 9f0f0306 0000040b  ................
 0d40 c8040000 06a00f03 06000008 0bee0100  ................
 0d50 0006a10f 03060000 0c001718 0d00001c  ................
 0d60 55020000 06aa235a 0d000008 d3050000  U.....#Z........
 0d70 810d0000 09380000 00060938 0000001f  .....8.....8....
 0d80 00182500 00009f0d 000019a4 05000019  ..%.............
 0d90 cd050000 193f0000 00199f0d 0000000d  .....?..........
 0da0 04390900 000d0481 0d000018 25000000  .9..........%...
 0db0 ce0d0000 19a40500 0019ce0d 00001903  ................
 0dc0 06000019 2c000000 199f0d00 00000d04  ....,...........
 0dd0 3f000000 0d04ab0d 000008d3 050000ea  ?...............
 0de0 0d000009 38000000 010008d3 050000fa  ....8...........
 0df0 0d000009 38000000 1f001d31 0700000a  ....8......1....
 0e00 21091201 00007814 00081000 0000019c  !.....x.........
 0e10 1e6d0001 260f1201 00000150 1e630001  .m..&......P.c..
 0e20 27062500 00000151 1f6e0001 28092c00  '.%....Q.n..(.,.
 0e30 00000800 00000000 00002073 00012a09  .......... s..*.
 0e40 cd050000 60000000 58000000 00002200  ....`...X.....".
 0e50 00000200 cc010000 04016502 0000c400  ..........e.....
 0e60 0008d600 0008d007 00002608 00008d08  ..........&.....
 0e70 00000180 22000000 0200e001 00000401  ...."...........
 0e80 f3020000 d8000008 ec010008 d0070000  ................
 0e90 26080000 8d080000 01802200 00000200  &.........".....
 0ea0 f4010000 04018503 0000ec01 0008c003  ................
 0eb0 0008d007 00002608 00008d08 00000180  ......&.........
 0ec0 22000000 02000802 00000401 1e040000  "...............
 0ed0 c0030008 c2030008 d0070000 26080000  ............&...
 0ee0 8d080000 0180                        ......          
Contents of section .debug_abbrev:
 0000 01110125 0e130b03 0e1b0e55 17110110  ...%.......U....
 0010 17000002 24000b0b 3e0b0308 00000316  ....$...>.......
 0020 00030e3a 0b3b0b39 0b491300 00042400  ...:.;.9.I....$.
 0030 0b0b3e0b 030e0000 05160003 0e3a0b3b  ..>..........:.;
 0040 05390b49 13000006 17010b0b 3a0b3b0b  .9.I........:.;.
 0050 390b0113 0000070d 00030e3a 0b3b0b39  9..........:.;.9
 0060 0b491300 00080101 49130113 00000921  .I......I......!
 0070 0049132f 0b00000a 13010b0b 3a0b3b0b  .I./........:.;.
 0080 390b0113 00000b0d 00030e3a 0b3b0b39  9..........:.;.9
 0090 0b491338 0b00000c 0f000b0b 00000d0f  .I.8............
 00a0 000b0b49 1300000e 1300030e 3c190000  ...I........<...
 00b0 0f130103 0e0b0b3a 0b3b0b39 0b011300  .......:.;.9....
 00c0 00100d00 03083a0b 3b0b390b 4913380b  ......:.;.9.I.8.
 00d0 00001113 01030e0b 053a0b3b 0b390b01  .........:.;.9..
 00e0 13000012 0d00030e 3a0b3b0b 390b4913  ........:.;.9.I.
 00f0 38050000 13150027 19000014 1301030e  8......'........
 0100 0b0b3a0b 3b05390b 01130000 150d0003  ..:.;.9.........
 0110 0e3a0b3b 05390b49 13380b00 00160d00  .:.;.9.I.8......
 0120 03083a0b 3b05390b 4913380b 00001726  ..:.;.9.I.8....&
 0130 00491300 00181501 27194913 01130000  .I......'.I.....
 0140 19050049 1300001a 15012719 01130000  ...I......'.....
 0150 1b340003 0e3a0b3b 05390b49 133f193c  .4...:.;.9.I.?.<
 0160 1900001c 3400030e 3a0b3b0b 390b4913  ....4...:.;.9.I.
 0170 3f193c19 00001d2e 013f1903 0e3a0b3b  ?.<......?...:.;
 0180 0b390b27 19491311 01120640 18974219  .9.'.I.....@..B.
 0190 00001e05 0003083a 0b3b0b39 0b491302  .......:.;.9.I..
 01a0 1800001f 05000308 3a0b3b0b 390b4913  ........:.;.9.I.
 01b0 0217b742 17000020 34000308 3a0b3b0b  ...B... 4...:.;.
 01c0 390b4913 0217b742 17000000 01110010  9.I....B........
 01d0 06110112 01030e1b 0e250e13 05000000  .........%......
 01e0 01110010 06110112 01030e1b 0e250e13  .............%..
 01f0 05000000 01110010 06110112 01030e1b  ................
 0200 0e250e13 05000000 01110010 06110112  .%..............
 0210 01030e1b 0e250e13 05000000           .....%......    
Contents of section .debug_loc:
 0000 00000001 01000000 78140008 7c140008  ........x...|...
 0010 0100527c 1400087c 1400080a 00700073  ..R|...|.....p.s
 0020 001cf301 52229f7c 14000886 1400080b  ....R".|........
 0030 00730020 f3015222 7000229f 86140008  .s. ..R"p.".....
 0040 88140008 0a007000 73001cf3 0152229f  ......p.s....R".
 0050 00000000 00000000 02000001 01000000  ................
 0060 78140008 7c140008 0100507c 14000882  x...|.....P|....
 0070 14000801 00538214 00088614 00080300  .....S..........
 0080 73019f86 14000888 14000801 00530000  s............S..
 0090 00000000 0000                        ......          
Contents of section .debug_aranges:
 0000 1c000000 02000000 00000400 00000000  ................
 0010 78140008 10000000 00000000 00000000  x...............
 0020 1c000000 02004e0e 00000400 00000000  ......N.........
 0030 c4000008 12000000 00000000 00000000  ................
 0040 1c000000 0200740e 00000400 00000000  ......t.........
 0050 d8000008 14010000 00000000 00000000  ................
 0060 1c000000 02009a0e 00000400 00000000  ................
 0070 ec010008 d4010000 00000000 00000000  ................
 0080 1c000000 0200c00e 00000400 00000000  ................
 0090 c0030008 02000000 00000000 00000000  ................
Contents of section .debug_ranges:
 0000 78140008 88140008 00000000 00000000  x...............
Contents of section .debug_line:
 0000 61020000 03003302 00000201 fb0e0d00  a.....3.........
 0010 01010101 00000001 0000012f 686f6d65  .........../home
 0020 2f667265 64646965 2f626c65 6564696e  /freddie/bleedin
 0030 672d6564 67652d74 6f6f6c63 6861696e  g-edge-toolchain
 0040 2f736f75 72636573 2f6e6577 6c69622d  /sources/newlib-
 0050 332e332e 302f6e65 776c6962 2f6c6962  3.3.0/newlib/lib
 0060 632f7374 72696e67 002f686f 6d652f66  c/string./home/f
 0070 72656464 69652f62 6c656564 696e672d  reddie/bleeding-
 0080 65646765 2d746f6f 6c636861 696e2f69  edge-toolchain/i
 0090 6e737461 6c6c4e61 74697665 2f6c6962  nstallNative/lib
 00a0 2f676363 2f61726d 2d6e6f6e 652d6561  /gcc/arm-none-ea
 00b0 62692f39 2e332e30 2f696e63 6c756465  bi/9.3.0/include
 00c0 002f686f 6d652f66 72656464 69652f62  ./home/freddie/b
 00d0 6c656564 696e672d 65646765 2d746f6f  leeding-edge-too
 00e0 6c636861 696e2f73 6f757263 65732f6e  lchain/sources/n
 00f0 65776c69 622d332e 332e302f 6e65776c  ewlib-3.3.0/newl
 0100 69622f6c 6962632f 696e636c 7564652f  ib/libc/include/
 0110 73797300 2f686f6d 652f6672 65646469  sys./home/freddi
 0120 652f626c 65656469 6e672d65 6467652d  e/bleeding-edge-
 0130 746f6f6c 63686169 6e2f736f 75726365  toolchain/source
 0140 732f6e65 776c6962 2d332e33 2e302f6e  s/newlib-3.3.0/n
 0150 65776c69 622f6c69 62632f73 7472696e  ewlib/libc/strin
 0160 672f2e2e 2f637479 70652f2e 2e2f6c6f  g/../ctype/../lo
 0170 63616c65 002f686f 6d652f66 72656464  cale./home/fredd
 0180 69652f62 6c656564 696e672d 65646765  ie/bleeding-edge
 0190 2d746f6f 6c636861 696e2f73 6f757263  -toolchain/sourc
 01a0 65732f6e 65776c69 622d332e 332e302f  es/newlib-3.3.0/
 01b0 6e65776c 69622f6c 6962632f 696e636c  newlib/libc/incl
 01c0 75646500 006d656d 7365742e 63000100  ude..memset.c...
 01d0 00737464 6465662e 68000200 005f7479  .stddef.h...._ty
 01e0 7065732e 68000300 00726565 6e742e68  pes.h....reent.h
 01f0 00030000 6c6f636b 2e680003 00007365  ....lock.h....se
 0200 746c6f63 616c652e 68000400 00737464  tlocale.h....std
 0210 6c69622e 68000500 00776368 61722e68  lib.h....wchar.h
 0220 00050000 6c6f6361 6c652e68 00050000  ....locale.h....
 0230 73747269 6e672e68 00050000 00050100  string.h........
 0240 05027814 00080328 01050313 03320105  ..x....(.....2..
 0250 092e0601 05013205 05061d05 0c06012e  ......2.........
 0260 02010001 018a0000 0003006c 00000002  ...........l....
 0270 01fb0e0d 00010101 01000000 01000001  ................
 0280 2f686f6d 652f6672 65646469 652f626c  /home/freddie/bl
 0290 65656469 6e672d65 6467652d 746f6f6c  eeding-edge-tool
 02a0 63686169 6e2f736f 75726365 732f6763  chain/sources/gc
 02b0 632d392e 332e302f 6c696267 63632f63  c-9.3.0/libgcc/c
 02c0 6f6e6669 672f6172 6d00006c 69623166  onfig/arm..lib1f
 02d0 756e6373 2e530001 00000000 0502c400  uncs.S..........
 02e0 0008039d 10012121 21212121 21210201  ......!!!!!!!!..
 02f0 0001018e 00000003 006c0000 000201fb  .........l......
 0300 0e0d0001 01010100 00000100 00012f68  ............../h
 0310 6f6d652f 66726564 6469652f 626c6565  ome/freddie/blee
 0320 64696e67 2d656467 652d746f 6f6c6368  ding-edge-toolch
 0330 61696e2f 736f7572 6365732f 6763632d  ain/sources/gcc-
 0340 392e332e 302f6c69 62676363 2f636f6e  9.3.0/libgcc/con
 0350 6669672f 61726d00 006c6962 3166756e  fig/arm..lib1fun
 0360 63732e53 00010000 00000502 d8000008  cs.S............
 0370 03b30801 03310280 01016a21 030c2021  .....1....j!.. !
 0380 02010001 01950000 0003006c 00000002  ...........l....
 0390 01fb0e0d 00010101 01000000 01000001  ................
 03a0 2f686f6d 652f6672 65646469 652f626c  /home/freddie/bl
 03b0 65656469 6e672d65 6467652d 746f6f6c  eeding-edge-tool
 03c0 63686169 6e2f736f 75726365 732f6763  chain/sources/gc
 03d0 632d392e 332e302f 6c696267 63632f63  c-9.3.0/libgcc/c
 03e0 6f6e6669 672f6172 6d00006c 69623166  onfig/arm..lib1f
 03f0 756e6373 2e530001 00000000 0502ec01  uncs.S..........
 0400 000803f0 09012121 23028001 1503c000  ......!!#.......
 0410 025e015c 21030c20 21020100 01018200  .^.\!.. !.......
 0420 00000300 6c000000 0201fb0e 0d000101  ....l...........
 0430 01010000 00010000 012f686f 6d652f66  ........./home/f
 0440 72656464 69652f62 6c656564 696e672d  reddie/bleeding-
 0450 65646765 2d746f6f 6c636861 696e2f73  edge-toolchain/s
 0460 6f757263 65732f67 63632d39 2e332e30  ources/gcc-9.3.0
 0470 2f6c6962 6763632f 636f6e66 69672f61  /libgcc/config/a
 0480 726d0000 6c696231 66756e63 732e5300  rm..lib1funcs.S.
 0490 01000000 000502c0 03000803 b40b0102  ................
 04a0 01000101                             ....            
Contents of section .debug_str:
 0000 5f64736f 5f68616e 646c6500 5f435f6e  _dso_handle._C_n
 0010 756d6572 69635f6c 6f63616c 65005f69  umeric_locale._i
 0020 735f6378 61006374 7970655f 70747200  s_cxa.ctype_ptr.
 0030 5f73697a 65007369 7a655f74 005f7261  _size.size_t._ra
 0040 6e643438 005f656d 65726765 6e637900  nd48._emergency.
 0050 696e745f 6e5f7365 705f6279 5f737061  int_n_sep_by_spa
 0060 6365005f 64617461 006c636f 6e76005f  ce._data.lconv._
 0070 77637274 6f6d625f 73746174 65005f77  wcrtomb_state._w
 0080 63737274 6f6d6273 5f737461 7465006c  csrtombs_state.l
 0090 6f6e6720 6c6f6e67 20756e73 69676e65  ong long unsigne
 00a0 6420696e 74005f6c 62667369 7a650063  d int._lbfsize.c
 00b0 6a6b5f6c 616e6700 5f5f6c6f 63616c65  jk_lang.__locale
 00c0 5f74006c 635f6e75 6d657269 635f5400  _t.lc_numeric_T.
 00d0 5f6d6272 746f7763 5f737461 7465005f  _mbrtowc_state._
 00e0 435f7469 6d655f6c 6f63616c 6500696e  C_time_locale.in
 00f0 745f6375 72725f73 796d626f 6c005f5f  t_curr_symbol.__
 0100 746d5f73 6563006c 635f7469 6d655f54  tm_sec.lc_time_T
 0110 00616c74 5f646967 69747300 6c6f6e67  .alt_digits.long
 0120 206c6f6e 6720696e 74005f75 62756600   long int._ubuf.
 0130 5f626173 65005f5f 746d5f68 6f757200  _base.__tm_hour.
 0140 5f5f7366 005f6f6e 5f657869 745f6172  __sf._on_exit_ar
 0150 6773005f 636f6f6b 6965005f 5f73676c  gs._cookie.__sgl
 0160 7565005f 435f6374 7970655f 6c6f6361  ue._C_ctype_loca
 0170 6c650061 6d5f706d 005f6d70 72656300  le.am_pm._mprec.
 0180 5f666c61 6773002f 686f6d65 2f667265  _flags./home/fre
 0190 64646965 2f626c65 6564696e 672d6564  ddie/bleeding-ed
 01a0 67652d74 6f6f6c63 6861696e 2f736f75  ge-toolchain/sou
 01b0 72636573 2f6e6577 6c69622d 332e332e  rces/newlib-3.3.
 01c0 302f6e65 776c6962 2f6c6962 632f7374  0/newlib/libc/st
 01d0 72696e67 2f6d656d 7365742e 63005f73  ring/memset.c._s
 01e0 7464696e 005f626c 6b73697a 65006e6f  tdin._blksize.no
 01f0 73747200 6c635f6d 6f6e6574 6172795f  str.lc_monetary_
 0200 54006d65 73736167 655f636f 64657365  T.message_codese
 0210 74005f63 76746275 66005f6f 66667365  t._cvtbuf._offse
 0220 74005f6d 62737274 6f776373 5f737461  t._mbsrtowcs_sta
 0230 7465005f 6d62726c 656e5f73 74617465  te._mbrlen_state
 0240 005f666e 61726773 006d6274 6f776300  ._fnargs.mbtowc.
 0250 5f666e73 005f435f 6d657373 61676573  _fns._C_messages
 0260 5f6c6f63 616c6500 696e745f 705f7369  _locale.int_p_si
 0270 676e5f70 6f736e00 6d6f6e5f 67726f75  gn_posn.mon_grou
 0280 70696e67 005f666c 6f636b5f 74005f73  ping._flock_t._s
 0290 74646572 72005f42 6967696e 74005f67  tderr._Bigint._g
 02a0 616d6d61 5f736967 6e67616d 00585f66  amma_signgam.X_f
 02b0 6d74005f 72656164 005f7265 73756c74  mt._read._result
 02c0 5f6b005f 5f746d00 5f6f6e5f 65786974  _k.__tm._on_exit
 02d0 5f617267 735f7074 7200696e 745f705f  _args_ptr.int_p_
 02e0 63735f70 72656365 64657300 5f5f7763  cs_precedes.__wc
 02f0 6862006d 6f6e5f64 6563696d 616c5f70  hb.mon_decimal_p
 0300 6f696e74 005f7374 646f7574 00635f66  oint._stdout.c_f
 0310 6d74005f 6376746c 656e005f 66696c65  mt._cvtlen._file
 0320 00646174 655f666d 74005f6e 696f6273  .date_fmt._niobs
 0330 006e6567 61746976 655f7369 676e0073  .negative_sign.s
 0340 686f7274 20756e73 69676e65 6420696e  hort unsigned in
 0350 74005f73 69676e61 6c5f6275 66005f61  t._signal_buf._a
 0360 73637469 6d655f62 7566005f 72657375  sctime_buf._resu
 0370 6c74005f 5f776368 006d625f 6375725f  lt.__wch.mb_cur_
 0380 6d617800 5f4c4f43 4b5f5400 77636861  max._LOCK_T.wcha
 0390 725f7400 5f666c61 67733200 5f777269  r_t._flags2._wri
 03a0 7465005f 5f746d5f 79656172 00706f73  te.__tm_year.pos
 03b0 69746976 655f7369 676e005f 6d697363  itive_sign._misc
 03c0 00637479 70655f63 6f646573 6574006c  .ctype_codeset.l
 03d0 6f6e6720 646f7562 6c65006e 6f657870  ong double.noexp
 03e0 72005f5f 746d5f6d 6f6e0078 5f666d74  r.__tm_mon.x_fmt
 03f0 00737562 6f707461 72670069 6e745f70  .suboptarg.int_p
 0400 5f736570 5f62795f 73706163 65005f5f  _sep_by_space.__
 0410 73646964 696e6974 005f6f66 665f7400  sdidinit._off_t.
 0420 77696e74 5f740047 4e552043 31372039  wint_t.GNU C17 9
 0430 2e332e30 202d6d66 6c6f6174 2d616269  .3.0 -mfloat-abi
 0440 3d736f66 74202d6d 7468756d 62202d6d  =soft -mthumb -m
 0450 666c6f61 742d6162 693d736f 6674202d  float-abi=soft -
 0460 6d617263 683d6172 6d763673 2d6d202d  march=armv6s-m -
 0470 67202d4f 73202d66 6e6f2d62 75696c74  g -Os -fno-built
 0480 696e202d 6666756e 6374696f 6e2d7365  in -ffunction-se
 0490 6374696f 6e73202d 66646174 612d7365  ctions -fdata-se
 04a0 6374696f 6e73005f 66726565 6c697374  ctions._freelist
 04b0 006d645f 6f726465 72005f77 63746f6d  .md_order._wctom
 04c0 625f7374 61746500 79657373 74720079  b_state.yesstr.y
 04d0 65736578 70720065 72615f64 5f666d74  esexpr.era_d_fmt
 04e0 00756e73 69676e65 64206368 6172005f  .unsigned char._
 04f0 696f6273 0073686f 72742069 6e74005f  iobs.short int._
 0500 5f746d5f 79646179 005f5f73 62756600  _tm_yday.__sbuf.
 0510 5f5f4649 4c45005f 6d627374 6174655f  __FILE._mbstate_
 0520 74005f5f 7346494c 45006c63 5f637479  t.__sFILE.lc_cty
 0530 70655f54 005f6d62 73746174 65005f72  pe_T._mbstate._r
 0540 616e645f 6e657874 00657261 5f745f66  and_next.era_t_f
 0550 6d740077 65656b64 6179005f 6d626c65  mt.weekday._mble
 0560 6e5f7374 61746500 5f696e63 005f696e  n_state._inc._in
 0570 64007763 746f6d62 005f5f63 6c65616e  d.wctomb.__clean
 0580 7570005f 756e7370 65636966 6965645f  up._unspecified_
 0590 6c6f6361 6c655f69 6e666f00 6d6f6e5f  locale_info.mon_
 05a0 74686f75 73616e64 735f7365 70005f6d  thousands_sep._m
 05b0 61787764 73005f73 65656400 696e745f  axwds._seed.int_
 05c0 6e5f6373 5f707265 63656465 73005f5f  n_cs_precedes.__
 05d0 636f756e 74005f5f 6c6f636b 005f5f76  count.__lock.__v
 05e0 616c7565 005f7365 656b0061 6d706d5f  alue._seek.ampm_
 05f0 666d7400 5f66706f 735f7400 63757272  fmt._fpos_t.curr
 0600 656e6379 5f73796d 626f6c00 5f657272  ency_symbol._err
 0610 6e6f005f 5f746d5f 6d696e00 6c635f6d  no.__tm_min.lc_m
 0620 65737361 6765735f 54005f67 6c6f6261  essages_T._globa
 0630 6c5f6174 65786974 005f6d75 6c74005f  l_atexit._mult._
 0640 73747274 6f6b5f6c 61737400 5f666e74  strtok_last._fnt
 0650 79706573 005f6d69 73635f72 65656e74  ypes._misc_reent
 0660 005f435f 6d6f6e65 74617279 5f6c6f63  ._C_monetary_loc
 0670 616c6500 5f616464 005f5f55 4c6f6e67  ale._add.__ULong
 0680 005f6765 74646174 655f6572 72002f68  ._getdate_err./h
 0690 6f6d652f 66726564 6469652f 626c6565  ome/freddie/blee
 06a0 64696e67 2d656467 652d746f 6f6c6368  ding-edge-toolch
 06b0 61696e2f 6275696c 644e6174 6976652f  ain/buildNative/
 06c0 6e65776c 69622d33 2e332e30 2d6e616e  newlib-3.3.0-nan
 06d0 6f2f6172 6d2d6e6f 6e652d65 6162692f  o/arm-none-eabi/
 06e0 7468756d 622f7636 2d6d2f6e 6f66702f  thumb/v6-m/nofp/
 06f0 6e65776c 69622f6c 6962632f 73747269  newlib/libc/stri
 0700 6e670063 61746567 6f726965 7300696e  ng.categories.in
 0710 745f6e5f 7369676e 5f706f73 6e005f67  t_n_sign_posn._g
 0720 6c6f6261 6c5f696d 70757265 5f707472  lobal_impure_ptr
 0730 006d656d 73657400 5f776473 005f5f74  .memset._wds.__t
 0740 6d5f7764 6179005f 676c7565 005f6c36  m_wday._glue._l6
 0750 34615f62 7566005f 7369675f 66756e63  4a_buf._sig_func
 0760 00696e74 5f667261 635f6469 67697473  .int_frac_digits
 0770 005f6e62 7566005f 5f746d5f 69736473  ._nbuf.__tm_isds
 0780 74005f6c 6f63616c 74696d65 5f627566  t._localtime_buf
 0790 005f636c 6f736500 6572615f 645f745f  ._close.era_d_t_
 07a0 666d7400 5f723438 005f6d62 746f7763  fmt._r48._mbtowc
 07b0 5f737461 7465005f 70357300 616c745f  _state._p5s.alt_
 07c0 6d6f6e74 68005f5f 746d5f6d 64617900  month.__tm_mday.
 07d0 2f686f6d 652f6672 65646469 652f626c  /home/freddie/bl
 07e0 65656469 6e672d65 6467652d 746f6f6c  eeding-edge-tool
 07f0 63686169 6e2f736f 75726365 732f6763  chain/sources/gc
 0800 632d392e 332e302f 6c696267 63632f63  c-9.3.0/libgcc/c
 0810 6f6e6669 672f6172 6d2f6c69 62316675  onfig/arm/lib1fu
 0820 6e63732e 53002f68 6f6d652f 66726564  ncs.S./home/fred
 0830 6469652f 626c6565 64696e67 2d656467  die/bleeding-edg
 0840 652d746f 6f6c6368 61696e2f 6275696c  e-toolchain/buil
 0850 644e6174 6976652f 6763632d 392e332e  dNative/gcc-9.3.
 0860 302d6669 6e616c2f 61726d2d 6e6f6e65  0-final/arm-none
 0870 2d656162 692f7468 756d622f 76362d6d  -eabi/thumb/v6-m
 0880 2f6e6f66 702f6c69 62676363 00474e55  /nofp/libgcc.GNU
 0890 20415320 322e3334 00                  AS 2.34.       
Contents of section .debug_frame:
 0000 0c000000 ffffffff 0100027c 0e0c0d00  ...........|....
 0010 0c000000 00000000 78140008 10000000  ........x.......
 0020 0c000000 ffffffff 0100017c 0e0c0d00  ...........|....
 0030 0c000000 20000000 d9000008 0a010000  .... ...........
 0040 0c000000 ffffffff 0100017c 0e0c0d00  ...........|....
 0050 0c000000 40000000 ed010008 cc010000  ....@...........

Disassembly of section .text:

080000c4 <__gnu_thumb1_case_uqi>:
 80000c4:	b402      	push	{r1}
 80000c6:	4671      	mov	r1, lr
 80000c8:	0849      	lsrs	r1, r1, #1
 80000ca:	0049      	lsls	r1, r1, #1
 80000cc:	5c09      	ldrb	r1, [r1, r0]
 80000ce:	0049      	lsls	r1, r1, #1
 80000d0:	448e      	add	lr, r1
 80000d2:	bc02      	pop	{r1}
 80000d4:	4770      	bx	lr
 80000d6:	46c0      	nop			; (mov r8, r8)

080000d8 <__udivsi3>:
 80000d8:	2200      	movs	r2, #0
 80000da:	0843      	lsrs	r3, r0, #1
 80000dc:	428b      	cmp	r3, r1
 80000de:	d374      	bcc.n	80001ca <__udivsi3+0xf2>
 80000e0:	0903      	lsrs	r3, r0, #4
 80000e2:	428b      	cmp	r3, r1
 80000e4:	d35f      	bcc.n	80001a6 <__udivsi3+0xce>
 80000e6:	0a03      	lsrs	r3, r0, #8
 80000e8:	428b      	cmp	r3, r1
 80000ea:	d344      	bcc.n	8000176 <__udivsi3+0x9e>
 80000ec:	0b03      	lsrs	r3, r0, #12
 80000ee:	428b      	cmp	r3, r1
 80000f0:	d328      	bcc.n	8000144 <__udivsi3+0x6c>
 80000f2:	0c03      	lsrs	r3, r0, #16
 80000f4:	428b      	cmp	r3, r1
 80000f6:	d30d      	bcc.n	8000114 <__udivsi3+0x3c>
 80000f8:	22ff      	movs	r2, #255	; 0xff
 80000fa:	0209      	lsls	r1, r1, #8
 80000fc:	ba12      	rev	r2, r2
 80000fe:	0c03      	lsrs	r3, r0, #16
 8000100:	428b      	cmp	r3, r1
 8000102:	d302      	bcc.n	800010a <__udivsi3+0x32>
 8000104:	1212      	asrs	r2, r2, #8
 8000106:	0209      	lsls	r1, r1, #8
 8000108:	d065      	beq.n	80001d6 <__udivsi3+0xfe>
 800010a:	0b03      	lsrs	r3, r0, #12
 800010c:	428b      	cmp	r3, r1
 800010e:	d319      	bcc.n	8000144 <__udivsi3+0x6c>
 8000110:	e000      	b.n	8000114 <__udivsi3+0x3c>
 8000112:	0a09      	lsrs	r1, r1, #8
 8000114:	0bc3      	lsrs	r3, r0, #15
 8000116:	428b      	cmp	r3, r1
 8000118:	d301      	bcc.n	800011e <__udivsi3+0x46>
 800011a:	03cb      	lsls	r3, r1, #15
 800011c:	1ac0      	subs	r0, r0, r3
 800011e:	4152      	adcs	r2, r2
 8000120:	0b83      	lsrs	r3, r0, #14
 8000122:	428b      	cmp	r3, r1
 8000124:	d301      	bcc.n	800012a <__udivsi3+0x52>
 8000126:	038b      	lsls	r3, r1, #14
 8000128:	1ac0      	subs	r0, r0, r3
 800012a:	4152      	adcs	r2, r2
 800012c:	0b43      	lsrs	r3, r0, #13
 800012e:	428b      	cmp	r3, r1
 8000130:	d301      	bcc.n	8000136 <__udivsi3+0x5e>
 8000132:	034b      	lsls	r3, r1, #13
 8000134:	1ac0      	subs	r0, r0, r3
 8000136:	4152      	adcs	r2, r2
 8000138:	0b03      	lsrs	r3, r0, #12
 800013a:	428b      	cmp	r3, r1
 800013c:	d301      	bcc.n	8000142 <__udivsi3+0x6a>
 800013e:	030b      	lsls	r3, r1, #12
 8000140:	1ac0      	subs	r0, r0, r3
 8000142:	4152      	adcs	r2, r2
 8000144:	0ac3      	lsrs	r3, r0, #11
 8000146:	428b      	cmp	r3, r1
 8000148:	d301      	bcc.n	800014e <__udivsi3+0x76>
 800014a:	02cb      	lsls	r3, r1, #11
 800014c:	1ac0      	subs	r0, r0, r3
 800014e:	4152      	adcs	r2, r2
 8000150:	0a83      	lsrs	r3, r0, #10
 8000152:	428b      	cmp	r3, r1
 8000154:	d301      	bcc.n	800015a <__udivsi3+0x82>
 8000156:	028b      	lsls	r3, r1, #10
 8000158:	1ac0      	subs	r0, r0, r3
 800015a:	4152      	adcs	r2, r2
 800015c:	0a43      	lsrs	r3, r0, #9
 800015e:	428b      	cmp	r3, r1
 8000160:	d301      	bcc.n	8000166 <__udivsi3+0x8e>
 8000162:	024b      	lsls	r3, r1, #9
 8000164:	1ac0      	subs	r0, r0, r3
 8000166:	4152      	adcs	r2, r2
 8000168:	0a03      	lsrs	r3, r0, #8
 800016a:	428b      	cmp	r3, r1
 800016c:	d301      	bcc.n	8000172 <__udivsi3+0x9a>
 800016e:	020b      	lsls	r3, r1, #8
 8000170:	1ac0      	subs	r0, r0, r3
 8000172:	4152      	adcs	r2, r2
 8000174:	d2cd      	bcs.n	8000112 <__udivsi3+0x3a>
 8000176:	09c3      	lsrs	r3, r0, #7
 8000178:	428b      	cmp	r3, r1
 800017a:	d301      	bcc.n	8000180 <__udivsi3+0xa8>
 800017c:	01cb      	lsls	r3, r1, #7
 800017e:	1ac0      	subs	r0, r0, r3
 8000180:	4152      	adcs	r2, r2
 8000182:	0983      	lsrs	r3, r0, #6
 8000184:	428b      	cmp	r3, r1
 8000186:	d301      	bcc.n	800018c <__udivsi3+0xb4>
 8000188:	018b      	lsls	r3, r1, #6
 800018a:	1ac0      	subs	r0, r0, r3
 800018c:	4152      	adcs	r2, r2
 800018e:	0943      	lsrs	r3, r0, #5
 8000190:	428b      	cmp	r3, r1
 8000192:	d301      	bcc.n	8000198 <__udivsi3+0xc0>
 8000194:	014b      	lsls	r3, r1, #5
 8000196:	1ac0      	subs	r0, r0, r3
 8000198:	4152      	adcs	r2, r2
 800019a:	0903      	lsrs	r3, r0, #4
 800019c:	428b      	cmp	r3, r1
 800019e:	d301      	bcc.n	80001a4 <__udivsi3+0xcc>
 80001a0:	010b      	lsls	r3, r1, #4
 80001a2:	1ac0      	subs	r0, r0, r3
 80001a4:	4152      	adcs	r2, r2
 80001a6:	08c3      	lsrs	r3, r0, #3
 80001a8:	428b      	cmp	r3, r1
 80001aa:	d301      	bcc.n	80001b0 <__udivsi3+0xd8>
 80001ac:	00cb      	lsls	r3, r1, #3
 80001ae:	1ac0      	subs	r0, r0, r3
 80001b0:	4152      	adcs	r2, r2
 80001b2:	0883      	lsrs	r3, r0, #2
 80001b4:	428b      	cmp	r3, r1
 80001b6:	d301      	bcc.n	80001bc <__udivsi3+0xe4>
 80001b8:	008b      	lsls	r3, r1, #2
 80001ba:	1ac0      	subs	r0, r0, r3
 80001bc:	4152      	adcs	r2, r2
 80001be:	0843      	lsrs	r3, r0, #1
 80001c0:	428b      	cmp	r3, r1
 80001c2:	d301      	bcc.n	80001c8 <__udivsi3+0xf0>
 80001c4:	004b      	lsls	r3, r1, #1
 80001c6:	1ac0      	subs	r0, r0, r3
 80001c8:	4152      	adcs	r2, r2
 80001ca:	1a41      	subs	r1, r0, r1
 80001cc:	d200      	bcs.n	80001d0 <__udivsi3+0xf8>
 80001ce:	4601      	mov	r1, r0
 80001d0:	4152      	adcs	r2, r2
 80001d2:	4610      	mov	r0, r2
 80001d4:	4770      	bx	lr
 80001d6:	e7ff      	b.n	80001d8 <__udivsi3+0x100>
 80001d8:	b501      	push	{r0, lr}
 80001da:	2000      	movs	r0, #0
 80001dc:	f000 f8f0 	bl	80003c0 <__aeabi_idiv0>
 80001e0:	bd02      	pop	{r1, pc}
 80001e2:	46c0      	nop			; (mov r8, r8)

080001e4 <__aeabi_uidivmod>:
 80001e4:	2900      	cmp	r1, #0
 80001e6:	d0f7      	beq.n	80001d8 <__udivsi3+0x100>
 80001e8:	e776      	b.n	80000d8 <__udivsi3>
 80001ea:	4770      	bx	lr

080001ec <__divsi3>:
 80001ec:	4603      	mov	r3, r0
 80001ee:	430b      	orrs	r3, r1
 80001f0:	d47f      	bmi.n	80002f2 <__divsi3+0x106>
 80001f2:	2200      	movs	r2, #0
 80001f4:	0843      	lsrs	r3, r0, #1
 80001f6:	428b      	cmp	r3, r1
 80001f8:	d374      	bcc.n	80002e4 <__divsi3+0xf8>
 80001fa:	0903      	lsrs	r3, r0, #4
 80001fc:	428b      	cmp	r3, r1
 80001fe:	d35f      	bcc.n	80002c0 <__divsi3+0xd4>
 8000200:	0a03      	lsrs	r3, r0, #8
 8000202:	428b      	cmp	r3, r1
 8000204:	d344      	bcc.n	8000290 <__divsi3+0xa4>
 8000206:	0b03      	lsrs	r3, r0, #12
 8000208:	428b      	cmp	r3, r1
 800020a:	d328      	bcc.n	800025e <__divsi3+0x72>
 800020c:	0c03      	lsrs	r3, r0, #16
 800020e:	428b      	cmp	r3, r1
 8000210:	d30d      	bcc.n	800022e <__divsi3+0x42>
 8000212:	22ff      	movs	r2, #255	; 0xff
 8000214:	0209      	lsls	r1, r1, #8
 8000216:	ba12      	rev	r2, r2
 8000218:	0c03      	lsrs	r3, r0, #16
 800021a:	428b      	cmp	r3, r1
 800021c:	d302      	bcc.n	8000224 <__divsi3+0x38>
 800021e:	1212      	asrs	r2, r2, #8
 8000220:	0209      	lsls	r1, r1, #8
 8000222:	d065      	beq.n	80002f0 <__divsi3+0x104>
 8000224:	0b03      	lsrs	r3, r0, #12
 8000226:	428b      	cmp	r3, r1
 8000228:	d319      	bcc.n	800025e <__divsi3+0x72>
 800022a:	e000      	b.n	800022e <__divsi3+0x42>
 800022c:	0a09      	lsrs	r1, r1, #8
 800022e:	0bc3      	lsrs	r3, r0, #15
 8000230:	428b      	cmp	r3, r1
 8000232:	d301      	bcc.n	8000238 <__divsi3+0x4c>
 8000234:	03cb      	lsls	r3, r1, #15
 8000236:	1ac0      	subs	r0, r0, r3
 8000238:	4152      	adcs	r2, r2
 800023a:	0b83      	lsrs	r3, r0, #14
 800023c:	428b      	cmp	r3, r1
 800023e:	d301      	bcc.n	8000244 <__divsi3+0x58>
 8000240:	038b      	lsls	r3, r1, #14
 8000242:	1ac0      	subs	r0, r0, r3
 8000244:	4152      	adcs	r2, r2
 8000246:	0b43      	lsrs	r3, r0, #13
 8000248:	428b      	cmp	r3, r1
 800024a:	d301      	bcc.n	8000250 <__divsi3+0x64>
 800024c:	034b      	lsls	r3, r1, #13
 800024e:	1ac0      	subs	r0, r0, r3
 8000250:	4152      	adcs	r2, r2
 8000252:	0b03      	lsrs	r3, r0, #12
 8000254:	428b      	cmp	r3, r1
 8000256:	d301      	bcc.n	800025c <__divsi3+0x70>
 8000258:	030b      	lsls	r3, r1, #12
 800025a:	1ac0      	subs	r0, r0, r3
 800025c:	4152      	adcs	r2, r2
 800025e:	0ac3      	lsrs	r3, r0, #11
 8000260:	428b      	cmp	r3, r1
 8000262:	d301      	bcc.n	8000268 <__divsi3+0x7c>
 8000264:	02cb      	lsls	r3, r1, #11
 8000266:	1ac0      	subs	r0, r0, r3
 8000268:	4152      	adcs	r2, r2
 800026a:	0a83      	lsrs	r3, r0, #10
 800026c:	428b      	cmp	r3, r1
 800026e:	d301      	bcc.n	8000274 <__divsi3+0x88>
 8000270:	028b      	lsls	r3, r1, #10
 8000272:	1ac0      	subs	r0, r0, r3
 8000274:	4152      	adcs	r2, r2
 8000276:	0a43      	lsrs	r3, r0, #9
 8000278:	428b      	cmp	r3, r1
 800027a:	d301      	bcc.n	8000280 <__divsi3+0x94>
 800027c:	024b      	lsls	r3, r1, #9
 800027e:	1ac0      	subs	r0, r0, r3
 8000280:	4152      	adcs	r2, r2
 8000282:	0a03      	lsrs	r3, r0, #8
 8000284:	428b      	cmp	r3, r1
 8000286:	d301      	bcc.n	800028c <__divsi3+0xa0>
 8000288:	020b      	lsls	r3, r1, #8
 800028a:	1ac0      	subs	r0, r0, r3
 800028c:	4152      	adcs	r2, r2
 800028e:	d2cd      	bcs.n	800022c <__divsi3+0x40>
 8000290:	09c3      	lsrs	r3, r0, #7
 8000292:	428b      	cmp	r3, r1
 8000294:	d301      	bcc.n	800029a <__divsi3+0xae>
 8000296:	01cb      	lsls	r3, r1, #7
 8000298:	1ac0      	subs	r0, r0, r3
 800029a:	4152      	adcs	r2, r2
 800029c:	0983      	lsrs	r3, r0, #6
 800029e:	428b      	cmp	r3, r1
 80002a0:	d301      	bcc.n	80002a6 <__divsi3+0xba>
 80002a2:	018b      	lsls	r3, r1, #6
 80002a4:	1ac0      	subs	r0, r0, r3
 80002a6:	4152      	adcs	r2, r2
 80002a8:	0943      	lsrs	r3, r0, #5
 80002aa:	428b      	cmp	r3, r1
 80002ac:	d301      	bcc.n	80002b2 <__divsi3+0xc6>
 80002ae:	014b      	lsls	r3, r1, #5
 80002b0:	1ac0      	subs	r0, r0, r3
 80002b2:	4152      	adcs	r2, r2
 80002b4:	0903      	lsrs	r3, r0, #4
 80002b6:	428b      	cmp	r3, r1
 80002b8:	d301      	bcc.n	80002be <__divsi3+0xd2>
 80002ba:	010b      	lsls	r3, r1, #4
 80002bc:	1ac0      	subs	r0, r0, r3
 80002be:	4152      	adcs	r2, r2
 80002c0:	08c3      	lsrs	r3, r0, #3
 80002c2:	428b      	cmp	r3, r1
 80002c4:	d301      	bcc.n	80002ca <__divsi3+0xde>
 80002c6:	00cb      	lsls	r3, r1, #3
 80002c8:	1ac0      	subs	r0, r0, r3
 80002ca:	4152      	adcs	r2, r2
 80002cc:	0883      	lsrs	r3, r0, #2
 80002ce:	428b      	cmp	r3, r1
 80002d0:	d301      	bcc.n	80002d6 <__divsi3+0xea>
 80002d2:	008b      	lsls	r3, r1, #2
 80002d4:	1ac0      	subs	r0, r0, r3
 80002d6:	4152      	adcs	r2, r2
 80002d8:	0843      	lsrs	r3, r0, #1
 80002da:	428b      	cmp	r3, r1
 80002dc:	d301      	bcc.n	80002e2 <__divsi3+0xf6>
 80002de:	004b      	lsls	r3, r1, #1
 80002e0:	1ac0      	subs	r0, r0, r3
 80002e2:	4152      	adcs	r2, r2
 80002e4:	1a41      	subs	r1, r0, r1
 80002e6:	d200      	bcs.n	80002ea <__divsi3+0xfe>
 80002e8:	4601      	mov	r1, r0
 80002ea:	4152      	adcs	r2, r2
 80002ec:	4610      	mov	r0, r2
 80002ee:	4770      	bx	lr
 80002f0:	e05d      	b.n	80003ae <__divsi3+0x1c2>
 80002f2:	0fca      	lsrs	r2, r1, #31
 80002f4:	d000      	beq.n	80002f8 <__divsi3+0x10c>
 80002f6:	4249      	negs	r1, r1
 80002f8:	1003      	asrs	r3, r0, #32
 80002fa:	d300      	bcc.n	80002fe <__divsi3+0x112>
 80002fc:	4240      	negs	r0, r0
 80002fe:	4053      	eors	r3, r2
 8000300:	2200      	movs	r2, #0
 8000302:	469c      	mov	ip, r3
 8000304:	0903      	lsrs	r3, r0, #4
 8000306:	428b      	cmp	r3, r1
 8000308:	d32d      	bcc.n	8000366 <__divsi3+0x17a>
 800030a:	0a03      	lsrs	r3, r0, #8
 800030c:	428b      	cmp	r3, r1
 800030e:	d312      	bcc.n	8000336 <__divsi3+0x14a>
 8000310:	22fc      	movs	r2, #252	; 0xfc
 8000312:	0189      	lsls	r1, r1, #6
 8000314:	ba12      	rev	r2, r2
 8000316:	0a03      	lsrs	r3, r0, #8
 8000318:	428b      	cmp	r3, r1
 800031a:	d30c      	bcc.n	8000336 <__divsi3+0x14a>
 800031c:	0189      	lsls	r1, r1, #6
 800031e:	1192      	asrs	r2, r2, #6
 8000320:	428b      	cmp	r3, r1
 8000322:	d308      	bcc.n	8000336 <__divsi3+0x14a>
 8000324:	0189      	lsls	r1, r1, #6
 8000326:	1192      	asrs	r2, r2, #6
 8000328:	428b      	cmp	r3, r1
 800032a:	d304      	bcc.n	8000336 <__divsi3+0x14a>
 800032c:	0189      	lsls	r1, r1, #6
 800032e:	d03a      	beq.n	80003a6 <__divsi3+0x1ba>
 8000330:	1192      	asrs	r2, r2, #6
 8000332:	e000      	b.n	8000336 <__divsi3+0x14a>
 8000334:	0989      	lsrs	r1, r1, #6
 8000336:	09c3      	lsrs	r3, r0, #7
 8000338:	428b      	cmp	r3, r1
 800033a:	d301      	bcc.n	8000340 <__divsi3+0x154>
 800033c:	01cb      	lsls	r3, r1, #7
 800033e:	1ac0      	subs	r0, r0, r3
 8000340:	4152      	adcs	r2, r2
 8000342:	0983      	lsrs	r3, r0, #6
 8000344:	428b      	cmp	r3, r1
 8000346:	d301      	bcc.n	800034c <__divsi3+0x160>
 8000348:	018b      	lsls	r3, r1, #6
 800034a:	1ac0      	subs	r0, r0, r3
 800034c:	4152      	adcs	r2, r2
 800034e:	0943      	lsrs	r3, r0, #5
 8000350:	428b      	cmp	r3, r1
 8000352:	d301      	bcc.n	8000358 <__divsi3+0x16c>
 8000354:	014b      	lsls	r3, r1, #5
 8000356:	1ac0      	subs	r0, r0, r3
 8000358:	4152      	adcs	r2, r2
 800035a:	0903      	lsrs	r3, r0, #4
 800035c:	428b      	cmp	r3, r1
 800035e:	d301      	bcc.n	8000364 <__divsi3+0x178>
 8000360:	010b      	lsls	r3, r1, #4
 8000362:	1ac0      	subs	r0, r0, r3
 8000364:	4152      	adcs	r2, r2
 8000366:	08c3      	lsrs	r3, r0, #3
 8000368:	428b      	cmp	r3, r1
 800036a:	d301      	bcc.n	8000370 <__divsi3+0x184>
 800036c:	00cb      	lsls	r3, r1, #3
 800036e:	1ac0      	subs	r0, r0, r3
 8000370:	4152      	adcs	r2, r2
 8000372:	0883      	lsrs	r3, r0, #2
 8000374:	428b      	cmp	r3, r1
 8000376:	d301      	bcc.n	800037c <__divsi3+0x190>
 8000378:	008b      	lsls	r3, r1, #2
 800037a:	1ac0      	subs	r0, r0, r3
 800037c:	4152      	adcs	r2, r2
 800037e:	d2d9      	bcs.n	8000334 <__divsi3+0x148>
 8000380:	0843      	lsrs	r3, r0, #1
 8000382:	428b      	cmp	r3, r1
 8000384:	d301      	bcc.n	800038a <__divsi3+0x19e>
 8000386:	004b      	lsls	r3, r1, #1
 8000388:	1ac0      	subs	r0, r0, r3
 800038a:	4152      	adcs	r2, r2
 800038c:	1a41      	subs	r1, r0, r1
 800038e:	d200      	bcs.n	8000392 <__divsi3+0x1a6>
 8000390:	4601      	mov	r1, r0
 8000392:	4663      	mov	r3, ip
 8000394:	4152      	adcs	r2, r2
 8000396:	105b      	asrs	r3, r3, #1
 8000398:	4610      	mov	r0, r2
 800039a:	d301      	bcc.n	80003a0 <__divsi3+0x1b4>
 800039c:	4240      	negs	r0, r0
 800039e:	2b00      	cmp	r3, #0
 80003a0:	d500      	bpl.n	80003a4 <__divsi3+0x1b8>
 80003a2:	4249      	negs	r1, r1
 80003a4:	4770      	bx	lr
 80003a6:	4663      	mov	r3, ip
 80003a8:	105b      	asrs	r3, r3, #1
 80003aa:	d300      	bcc.n	80003ae <__divsi3+0x1c2>
 80003ac:	4240      	negs	r0, r0
 80003ae:	b501      	push	{r0, lr}
 80003b0:	2000      	movs	r0, #0
 80003b2:	f000 f805 	bl	80003c0 <__aeabi_idiv0>
 80003b6:	bd02      	pop	{r1, pc}

080003b8 <__aeabi_idivmod>:
 80003b8:	2900      	cmp	r1, #0
 80003ba:	d0f8      	beq.n	80003ae <__divsi3+0x1c2>
 80003bc:	e716      	b.n	80001ec <__divsi3>
 80003be:	4770      	bx	lr

080003c0 <__aeabi_idiv0>:
 80003c0:	4770      	bx	lr
 80003c2:	46c0      	nop			; (mov r8, r8)

080003c4 <deregister_tm_clones>:
 80003c4:	4804      	ldr	r0, [pc, #16]	; (80003d8 <deregister_tm_clones+0x14>)
 80003c6:	4b05      	ldr	r3, [pc, #20]	; (80003dc <deregister_tm_clones+0x18>)
 80003c8:	b510      	push	{r4, lr}
 80003ca:	4283      	cmp	r3, r0
 80003cc:	d003      	beq.n	80003d6 <deregister_tm_clones+0x12>
 80003ce:	4b04      	ldr	r3, [pc, #16]	; (80003e0 <deregister_tm_clones+0x1c>)
 80003d0:	2b00      	cmp	r3, #0
 80003d2:	d000      	beq.n	80003d6 <deregister_tm_clones+0x12>
 80003d4:	4798      	blx	r3
 80003d6:	bd10      	pop	{r4, pc}
 80003d8:	20000030 	.word	0x20000030
 80003dc:	20000030 	.word	0x20000030
 80003e0:	00000000 	.word	0x00000000

080003e4 <register_tm_clones>:
 80003e4:	4806      	ldr	r0, [pc, #24]	; (8000400 <register_tm_clones+0x1c>)
 80003e6:	4907      	ldr	r1, [pc, #28]	; (8000404 <register_tm_clones+0x20>)
 80003e8:	1a09      	subs	r1, r1, r0
 80003ea:	108b      	asrs	r3, r1, #2
 80003ec:	0fc9      	lsrs	r1, r1, #31
 80003ee:	18c9      	adds	r1, r1, r3
 80003f0:	b510      	push	{r4, lr}
 80003f2:	1049      	asrs	r1, r1, #1
 80003f4:	d003      	beq.n	80003fe <register_tm_clones+0x1a>
 80003f6:	4b04      	ldr	r3, [pc, #16]	; (8000408 <register_tm_clones+0x24>)
 80003f8:	2b00      	cmp	r3, #0
 80003fa:	d000      	beq.n	80003fe <register_tm_clones+0x1a>
 80003fc:	4798      	blx	r3
 80003fe:	bd10      	pop	{r4, pc}
 8000400:	20000030 	.word	0x20000030
 8000404:	20000030 	.word	0x20000030
 8000408:	00000000 	.word	0x00000000

0800040c <__do_global_dtors_aux>:
 800040c:	b510      	push	{r4, lr}
 800040e:	4c07      	ldr	r4, [pc, #28]	; (800042c <__do_global_dtors_aux+0x20>)
 8000410:	7823      	ldrb	r3, [r4, #0]
 8000412:	2b00      	cmp	r3, #0
 8000414:	d109      	bne.n	800042a <__do_global_dtors_aux+0x1e>
 8000416:	f7ff ffd5 	bl	80003c4 <deregister_tm_clones>
 800041a:	4b05      	ldr	r3, [pc, #20]	; (8000430 <__do_global_dtors_aux+0x24>)
 800041c:	2b00      	cmp	r3, #0
 800041e:	d002      	beq.n	8000426 <__do_global_dtors_aux+0x1a>
 8000420:	4804      	ldr	r0, [pc, #16]	; (8000434 <__do_global_dtors_aux+0x28>)
 8000422:	e000      	b.n	8000426 <__do_global_dtors_aux+0x1a>
 8000424:	bf00      	nop
 8000426:	2301      	movs	r3, #1
 8000428:	7023      	strb	r3, [r4, #0]
 800042a:	bd10      	pop	{r4, pc}
 800042c:	20000030 	.word	0x20000030
 8000430:	00000000 	.word	0x00000000
 8000434:	08001488 	.word	0x08001488

08000438 <frame_dummy>:
 8000438:	4b05      	ldr	r3, [pc, #20]	; (8000450 <frame_dummy+0x18>)
 800043a:	b510      	push	{r4, lr}
 800043c:	2b00      	cmp	r3, #0
 800043e:	d003      	beq.n	8000448 <frame_dummy+0x10>
 8000440:	4904      	ldr	r1, [pc, #16]	; (8000454 <frame_dummy+0x1c>)
 8000442:	4805      	ldr	r0, [pc, #20]	; (8000458 <frame_dummy+0x20>)
 8000444:	e000      	b.n	8000448 <frame_dummy+0x10>
 8000446:	bf00      	nop
 8000448:	f7ff ffcc 	bl	80003e4 <register_tm_clones>
 800044c:	bd10      	pop	{r4, pc}
 800044e:	46c0      	nop			; (mov r8, r8)
 8000450:	00000000 	.word	0x00000000
 8000454:	20000034 	.word	0x20000034
 8000458:	08001488 	.word	0x08001488

0800045c <Reset_Handler>:
 800045c:	480c      	ldr	r0, [pc, #48]	; (8000490 <LoopForever+0x2>)
 800045e:	4685      	mov	sp, r0
 8000460:	2100      	movs	r1, #0
 8000462:	e003      	b.n	800046c <LoopCopyDataInit>

08000464 <CopyDataInit>:
 8000464:	4b0b      	ldr	r3, [pc, #44]	; (8000494 <LoopForever+0x6>)
 8000466:	585b      	ldr	r3, [r3, r1]
 8000468:	5043      	str	r3, [r0, r1]
 800046a:	3104      	adds	r1, #4

0800046c <LoopCopyDataInit>:
 800046c:	480a      	ldr	r0, [pc, #40]	; (8000498 <LoopForever+0xa>)
 800046e:	4b0b      	ldr	r3, [pc, #44]	; (800049c <LoopForever+0xe>)
 8000470:	1842      	adds	r2, r0, r1
 8000472:	429a      	cmp	r2, r3
 8000474:	d3f6      	bcc.n	8000464 <CopyDataInit>
 8000476:	4a0a      	ldr	r2, [pc, #40]	; (80004a0 <LoopForever+0x12>)
 8000478:	e002      	b.n	8000480 <LoopFillZerobss>

0800047a <FillZerobss>:
 800047a:	2300      	movs	r3, #0
 800047c:	6013      	str	r3, [r2, #0]
 800047e:	3204      	adds	r2, #4

08000480 <LoopFillZerobss>:
 8000480:	4b08      	ldr	r3, [pc, #32]	; (80004a4 <LoopForever+0x16>)
 8000482:	429a      	cmp	r2, r3
 8000484:	d3f9      	bcc.n	800047a <FillZerobss>
 8000486:	f000 fe0f 	bl	80010a8 <SystemInit>
 800048a:	f000 f9f1 	bl	8000870 <main>

0800048e <LoopForever>:
 800048e:	e7fe      	b.n	800048e <LoopForever>
 8000490:	20001000 	.word	0x20001000
 8000494:	080014a8 	.word	0x080014a8
 8000498:	20000000 	.word	0x20000000
 800049c:	20000030 	.word	0x20000030
 80004a0:	20000030 	.word	0x20000030
 80004a4:	20000a20 	.word	0x20000a20

080004a8 <ADC1_IRQHandler>:
 80004a8:	e7fe      	b.n	80004a8 <ADC1_IRQHandler>
	...

080004ac <uart_tx_dma_config.constprop.0>:
 80004ac:	4b09      	ldr	r3, [pc, #36]	; (80004d4 <uart_tx_dma_config.constprop.0+0x28>)
 80004ae:	490a      	ldr	r1, [pc, #40]	; (80004d8 <uart_tx_dma_config.constprop.0+0x2c>)
 80004b0:	681a      	ldr	r2, [r3, #0]
 80004b2:	400a      	ands	r2, r1
 80004b4:	601a      	str	r2, [r3, #0]
 80004b6:	22b6      	movs	r2, #182	; 0xb6
 80004b8:	2120      	movs	r1, #32
 80004ba:	0092      	lsls	r2, r2, #2
 80004bc:	60d8      	str	r0, [r3, #12]
 80004be:	605a      	str	r2, [r3, #4]
 80004c0:	4a06      	ldr	r2, [pc, #24]	; (80004dc <uart_tx_dma_config.constprop.0+0x30>)
 80004c2:	6051      	str	r1, [r2, #4]
 80004c4:	3160      	adds	r1, #96	; 0x60
 80004c6:	6051      	str	r1, [r2, #4]
 80004c8:	2201      	movs	r2, #1
 80004ca:	6819      	ldr	r1, [r3, #0]
 80004cc:	430a      	orrs	r2, r1
 80004ce:	601a      	str	r2, [r3, #0]
 80004d0:	4770      	bx	lr
 80004d2:	46c0      	nop			; (mov r8, r8)
 80004d4:	4002001c 	.word	0x4002001c
 80004d8:	0000fffe 	.word	0x0000fffe
 80004dc:	40020000 	.word	0x40020000

080004e0 <DMA_Init>:
 80004e0:	6802      	ldr	r2, [r0, #0]
 80004e2:	4b0d      	ldr	r3, [pc, #52]	; (8000518 <DMA_Init+0x38>)
 80004e4:	b510      	push	{r4, lr}
 80004e6:	401a      	ands	r2, r3
 80004e8:	6a0c      	ldr	r4, [r1, #32]
 80004ea:	688b      	ldr	r3, [r1, #8]
 80004ec:	4323      	orrs	r3, r4
 80004ee:	690c      	ldr	r4, [r1, #16]
 80004f0:	4323      	orrs	r3, r4
 80004f2:	694c      	ldr	r4, [r1, #20]
 80004f4:	4323      	orrs	r3, r4
 80004f6:	698c      	ldr	r4, [r1, #24]
 80004f8:	4323      	orrs	r3, r4
 80004fa:	69cc      	ldr	r4, [r1, #28]
 80004fc:	4323      	orrs	r3, r4
 80004fe:	6a4c      	ldr	r4, [r1, #36]	; 0x24
 8000500:	4323      	orrs	r3, r4
 8000502:	6a8c      	ldr	r4, [r1, #40]	; 0x28
 8000504:	4323      	orrs	r3, r4
 8000506:	4313      	orrs	r3, r2
 8000508:	6003      	str	r3, [r0, #0]
 800050a:	68cb      	ldr	r3, [r1, #12]
 800050c:	6043      	str	r3, [r0, #4]
 800050e:	680b      	ldr	r3, [r1, #0]
 8000510:	6083      	str	r3, [r0, #8]
 8000512:	684b      	ldr	r3, [r1, #4]
 8000514:	60c3      	str	r3, [r0, #12]
 8000516:	bd10      	pop	{r4, pc}
 8000518:	ffff800f 	.word	0xffff800f

0800051c <RCC_GetClocksFreq>:
 800051c:	220c      	movs	r2, #12
 800051e:	b5f8      	push	{r3, r4, r5, r6, r7, lr}
 8000520:	4d55      	ldr	r5, [pc, #340]	; (8000678 <RCC_GetClocksFreq+0x15c>)
 8000522:	0004      	movs	r4, r0
 8000524:	686b      	ldr	r3, [r5, #4]
 8000526:	4013      	ands	r3, r2
 8000528:	2b08      	cmp	r3, #8
 800052a:	d005      	beq.n	8000538 <RCC_GetClocksFreq+0x1c>
 800052c:	4293      	cmp	r3, r2
 800052e:	d053      	beq.n	80005d8 <RCC_GetClocksFreq+0xbc>
 8000530:	4b52      	ldr	r3, [pc, #328]	; (800067c <RCC_GetClocksFreq+0x160>)
 8000532:	2000      	movs	r0, #0
 8000534:	6023      	str	r3, [r4, #0]
 8000536:	e00c      	b.n	8000552 <RCC_GetClocksFreq+0x36>
 8000538:	230f      	movs	r3, #15
 800053a:	22c0      	movs	r2, #192	; 0xc0
 800053c:	6868      	ldr	r0, [r5, #4]
 800053e:	6869      	ldr	r1, [r5, #4]
 8000540:	0c80      	lsrs	r0, r0, #18
 8000542:	4018      	ands	r0, r3
 8000544:	0252      	lsls	r2, r2, #9
 8000546:	1c86      	adds	r6, r0, #2
 8000548:	4211      	tst	r1, r2
 800054a:	d13e      	bne.n	80005ca <RCC_GetClocksFreq+0xae>
 800054c:	484c      	ldr	r0, [pc, #304]	; (8000680 <RCC_GetClocksFreq+0x164>)
 800054e:	4370      	muls	r0, r6
 8000550:	6020      	str	r0, [r4, #0]
 8000552:	6821      	ldr	r1, [r4, #0]
 8000554:	686b      	ldr	r3, [r5, #4]
 8000556:	000a      	movs	r2, r1
 8000558:	4e4a      	ldr	r6, [pc, #296]	; (8000684 <RCC_GetClocksFreq+0x168>)
 800055a:	061b      	lsls	r3, r3, #24
 800055c:	0f1b      	lsrs	r3, r3, #28
 800055e:	5cf3      	ldrb	r3, [r6, r3]
 8000560:	40da      	lsrs	r2, r3
 8000562:	6062      	str	r2, [r4, #4]
 8000564:	686b      	ldr	r3, [r5, #4]
 8000566:	055b      	lsls	r3, r3, #21
 8000568:	0f5b      	lsrs	r3, r3, #29
 800056a:	5cf3      	ldrb	r3, [r6, r3]
 800056c:	40da      	lsrs	r2, r3
 800056e:	60a2      	str	r2, [r4, #8]
 8000570:	6b2b      	ldr	r3, [r5, #48]	; 0x30
 8000572:	05db      	lsls	r3, r3, #23
 8000574:	d432      	bmi.n	80005dc <RCC_GetClocksFreq+0xc0>
 8000576:	4b44      	ldr	r3, [pc, #272]	; (8000688 <RCC_GetClocksFreq+0x16c>)
 8000578:	2640      	movs	r6, #64	; 0x40
 800057a:	60e3      	str	r3, [r4, #12]
 800057c:	6b2b      	ldr	r3, [r5, #48]	; 0x30
 800057e:	4033      	ands	r3, r6
 8000580:	425e      	negs	r6, r3
 8000582:	4173      	adcs	r3, r6
 8000584:	2612      	movs	r6, #18
 8000586:	425b      	negs	r3, r3
 8000588:	4033      	ands	r3, r6
 800058a:	2680      	movs	r6, #128	; 0x80
 800058c:	0236      	lsls	r6, r6, #8
 800058e:	199b      	adds	r3, r3, r6
 8000590:	6123      	str	r3, [r4, #16]
 8000592:	6b2b      	ldr	r3, [r5, #48]	; 0x30
 8000594:	06db      	lsls	r3, r3, #27
 8000596:	d528      	bpl.n	80005ea <RCC_GetClocksFreq+0xce>
 8000598:	000b      	movs	r3, r1
 800059a:	6163      	str	r3, [r4, #20]
 800059c:	2303      	movs	r3, #3
 800059e:	6b2e      	ldr	r6, [r5, #48]	; 0x30
 80005a0:	421e      	tst	r6, r3
 80005a2:	d124      	bne.n	80005ee <RCC_GetClocksFreq+0xd2>
 80005a4:	61a2      	str	r2, [r4, #24]
 80005a6:	23c0      	movs	r3, #192	; 0xc0
 80005a8:	6b2e      	ldr	r6, [r5, #48]	; 0x30
 80005aa:	029b      	lsls	r3, r3, #10
 80005ac:	421e      	tst	r6, r3
 80005ae:	d132      	bne.n	8000616 <RCC_GetClocksFreq+0xfa>
 80005b0:	61e2      	str	r2, [r4, #28]
 80005b2:	23c0      	movs	r3, #192	; 0xc0
 80005b4:	6b2e      	ldr	r6, [r5, #48]	; 0x30
 80005b6:	031b      	lsls	r3, r3, #12
 80005b8:	421e      	tst	r6, r3
 80005ba:	d144      	bne.n	8000646 <RCC_GetClocksFreq+0x12a>
 80005bc:	6222      	str	r2, [r4, #32]
 80005be:	6b2b      	ldr	r3, [r5, #48]	; 0x30
 80005c0:	061b      	lsls	r3, r3, #24
 80005c2:	d400      	bmi.n	80005c6 <RCC_GetClocksFreq+0xaa>
 80005c4:	4831      	ldr	r0, [pc, #196]	; (800068c <RCC_GetClocksFreq+0x170>)
 80005c6:	6260      	str	r0, [r4, #36]	; 0x24
 80005c8:	bdf8      	pop	{r3, r4, r5, r6, r7, pc}
 80005ca:	6ae9      	ldr	r1, [r5, #44]	; 0x2c
 80005cc:	482b      	ldr	r0, [pc, #172]	; (800067c <RCC_GetClocksFreq+0x160>)
 80005ce:	4019      	ands	r1, r3
 80005d0:	3101      	adds	r1, #1
 80005d2:	f7ff fd81 	bl	80000d8 <__udivsi3>
 80005d6:	e7ba      	b.n	800054e <RCC_GetClocksFreq+0x32>
 80005d8:	4b2c      	ldr	r3, [pc, #176]	; (800068c <RCC_GetClocksFreq+0x170>)
 80005da:	e7aa      	b.n	8000532 <RCC_GetClocksFreq+0x16>
 80005dc:	686b      	ldr	r3, [r5, #4]
 80005de:	045b      	lsls	r3, r3, #17
 80005e0:	d401      	bmi.n	80005e6 <RCC_GetClocksFreq+0xca>
 80005e2:	0853      	lsrs	r3, r2, #1
 80005e4:	e7c8      	b.n	8000578 <RCC_GetClocksFreq+0x5c>
 80005e6:	0893      	lsrs	r3, r2, #2
 80005e8:	e7c6      	b.n	8000578 <RCC_GetClocksFreq+0x5c>
 80005ea:	4b24      	ldr	r3, [pc, #144]	; (800067c <RCC_GetClocksFreq+0x160>)
 80005ec:	e7d5      	b.n	800059a <RCC_GetClocksFreq+0x7e>
 80005ee:	6b2e      	ldr	r6, [r5, #48]	; 0x30
 80005f0:	401e      	ands	r6, r3
 80005f2:	2e01      	cmp	r6, #1
 80005f4:	d101      	bne.n	80005fa <RCC_GetClocksFreq+0xde>
 80005f6:	61a1      	str	r1, [r4, #24]
 80005f8:	e7d5      	b.n	80005a6 <RCC_GetClocksFreq+0x8a>
 80005fa:	6b2e      	ldr	r6, [r5, #48]	; 0x30
 80005fc:	401e      	ands	r6, r3
 80005fe:	2e02      	cmp	r6, #2
 8000600:	d103      	bne.n	800060a <RCC_GetClocksFreq+0xee>
 8000602:	2380      	movs	r3, #128	; 0x80
 8000604:	021b      	lsls	r3, r3, #8
 8000606:	61a3      	str	r3, [r4, #24]
 8000608:	e7cd      	b.n	80005a6 <RCC_GetClocksFreq+0x8a>
 800060a:	6b2e      	ldr	r6, [r5, #48]	; 0x30
 800060c:	4033      	ands	r3, r6
 800060e:	2b03      	cmp	r3, #3
 8000610:	d1c9      	bne.n	80005a6 <RCC_GetClocksFreq+0x8a>
 8000612:	4b1a      	ldr	r3, [pc, #104]	; (800067c <RCC_GetClocksFreq+0x160>)
 8000614:	e7f7      	b.n	8000606 <RCC_GetClocksFreq+0xea>
 8000616:	2780      	movs	r7, #128	; 0x80
 8000618:	6b2e      	ldr	r6, [r5, #48]	; 0x30
 800061a:	027f      	lsls	r7, r7, #9
 800061c:	401e      	ands	r6, r3
 800061e:	42be      	cmp	r6, r7
 8000620:	d101      	bne.n	8000626 <RCC_GetClocksFreq+0x10a>
 8000622:	61e1      	str	r1, [r4, #28]
 8000624:	e7c5      	b.n	80005b2 <RCC_GetClocksFreq+0x96>
 8000626:	2780      	movs	r7, #128	; 0x80
 8000628:	6b2e      	ldr	r6, [r5, #48]	; 0x30
 800062a:	02bf      	lsls	r7, r7, #10
 800062c:	401e      	ands	r6, r3
 800062e:	42be      	cmp	r6, r7
 8000630:	d103      	bne.n	800063a <RCC_GetClocksFreq+0x11e>
 8000632:	2380      	movs	r3, #128	; 0x80
 8000634:	021b      	lsls	r3, r3, #8
 8000636:	61e3      	str	r3, [r4, #28]
 8000638:	e7bb      	b.n	80005b2 <RCC_GetClocksFreq+0x96>
 800063a:	6b2e      	ldr	r6, [r5, #48]	; 0x30
 800063c:	401e      	ands	r6, r3
 800063e:	429e      	cmp	r6, r3
 8000640:	d1b7      	bne.n	80005b2 <RCC_GetClocksFreq+0x96>
 8000642:	4b0e      	ldr	r3, [pc, #56]	; (800067c <RCC_GetClocksFreq+0x160>)
 8000644:	e7f7      	b.n	8000636 <RCC_GetClocksFreq+0x11a>
 8000646:	2680      	movs	r6, #128	; 0x80
 8000648:	6b2a      	ldr	r2, [r5, #48]	; 0x30
 800064a:	02f6      	lsls	r6, r6, #11
 800064c:	401a      	ands	r2, r3
 800064e:	42b2      	cmp	r2, r6
 8000650:	d101      	bne.n	8000656 <RCC_GetClocksFreq+0x13a>
 8000652:	6221      	str	r1, [r4, #32]
 8000654:	e7b3      	b.n	80005be <RCC_GetClocksFreq+0xa2>
 8000656:	2180      	movs	r1, #128	; 0x80
 8000658:	6b2a      	ldr	r2, [r5, #48]	; 0x30
 800065a:	0309      	lsls	r1, r1, #12
 800065c:	401a      	ands	r2, r3
 800065e:	428a      	cmp	r2, r1
 8000660:	d103      	bne.n	800066a <RCC_GetClocksFreq+0x14e>
 8000662:	2380      	movs	r3, #128	; 0x80
 8000664:	021b      	lsls	r3, r3, #8
 8000666:	6223      	str	r3, [r4, #32]
 8000668:	e7a9      	b.n	80005be <RCC_GetClocksFreq+0xa2>
 800066a:	6b2a      	ldr	r2, [r5, #48]	; 0x30
 800066c:	401a      	ands	r2, r3
 800066e:	429a      	cmp	r2, r3
 8000670:	d1a5      	bne.n	80005be <RCC_GetClocksFreq+0xa2>
 8000672:	4b02      	ldr	r3, [pc, #8]	; (800067c <RCC_GetClocksFreq+0x160>)
 8000674:	e7f7      	b.n	8000666 <RCC_GetClocksFreq+0x14a>
 8000676:	46c0      	nop			; (mov r8, r8)
 8000678:	40021000 	.word	0x40021000
 800067c:	007a1200 	.word	0x007a1200
 8000680:	003d0900 	.word	0x003d0900
 8000684:	20000011 	.word	0x20000011
 8000688:	00d59f80 	.word	0x00d59f80
 800068c:	02dc6c00 	.word	0x02dc6c00

08000690 <GPIO_Init>:
 8000690:	b5f7      	push	{r0, r1, r2, r4, r5, r6, r7, lr}
 8000692:	2203      	movs	r2, #3
 8000694:	2300      	movs	r3, #0
 8000696:	4694      	mov	ip, r2
 8000698:	2701      	movs	r7, #1
 800069a:	409f      	lsls	r7, r3
 800069c:	680a      	ldr	r2, [r1, #0]
 800069e:	403a      	ands	r2, r7
 80006a0:	4297      	cmp	r7, r2
 80006a2:	d12c      	bne.n	80006fe <GPIO_Init+0x6e>
 80006a4:	4664      	mov	r4, ip
 80006a6:	005d      	lsls	r5, r3, #1
 80006a8:	40ac      	lsls	r4, r5
 80006aa:	790a      	ldrb	r2, [r1, #4]
 80006ac:	43e4      	mvns	r4, r4
 80006ae:	1e56      	subs	r6, r2, #1
 80006b0:	9201      	str	r2, [sp, #4]
 80006b2:	2e01      	cmp	r6, #1
 80006b4:	d811      	bhi.n	80006da <GPIO_Init+0x4a>
 80006b6:	6886      	ldr	r6, [r0, #8]
 80006b8:	4026      	ands	r6, r4
 80006ba:	6086      	str	r6, [r0, #8]
 80006bc:	6886      	ldr	r6, [r0, #8]
 80006be:	0032      	movs	r2, r6
 80006c0:	794e      	ldrb	r6, [r1, #5]
 80006c2:	40ae      	lsls	r6, r5
 80006c4:	4316      	orrs	r6, r2
 80006c6:	6086      	str	r6, [r0, #8]
 80006c8:	8886      	ldrh	r6, [r0, #4]
 80006ca:	43be      	bics	r6, r7
 80006cc:	8086      	strh	r6, [r0, #4]
 80006ce:	798f      	ldrb	r7, [r1, #6]
 80006d0:	8886      	ldrh	r6, [r0, #4]
 80006d2:	409f      	lsls	r7, r3
 80006d4:	433e      	orrs	r6, r7
 80006d6:	b2b6      	uxth	r6, r6
 80006d8:	8086      	strh	r6, [r0, #4]
 80006da:	9a01      	ldr	r2, [sp, #4]
 80006dc:	6806      	ldr	r6, [r0, #0]
 80006de:	40aa      	lsls	r2, r5
 80006e0:	4034      	ands	r4, r6
 80006e2:	6004      	str	r4, [r0, #0]
 80006e4:	6804      	ldr	r4, [r0, #0]
 80006e6:	4322      	orrs	r2, r4
 80006e8:	4664      	mov	r4, ip
 80006ea:	40ac      	lsls	r4, r5
 80006ec:	6002      	str	r2, [r0, #0]
 80006ee:	68c2      	ldr	r2, [r0, #12]
 80006f0:	43a2      	bics	r2, r4
 80006f2:	60c2      	str	r2, [r0, #12]
 80006f4:	79ca      	ldrb	r2, [r1, #7]
 80006f6:	68c4      	ldr	r4, [r0, #12]
 80006f8:	40aa      	lsls	r2, r5
 80006fa:	4322      	orrs	r2, r4
 80006fc:	60c2      	str	r2, [r0, #12]
 80006fe:	3301      	adds	r3, #1
 8000700:	2b10      	cmp	r3, #16
 8000702:	d1c9      	bne.n	8000698 <GPIO_Init+0x8>
 8000704:	bdf7      	pop	{r0, r1, r2, r4, r5, r6, r7, pc}

08000706 <small_delay>:
 8000706:	46c0      	nop			; (mov r8, r8)
 8000708:	46c0      	nop			; (mov r8, r8)
 800070a:	46c0      	nop			; (mov r8, r8)
 800070c:	46c0      	nop			; (mov r8, r8)
 800070e:	46c0      	nop			; (mov r8, r8)
 8000710:	46c0      	nop			; (mov r8, r8)
 8000712:	46c0      	nop			; (mov r8, r8)
 8000714:	46c0      	nop			; (mov r8, r8)
 8000716:	4770      	bx	lr

08000718 <stop_hardware_capture>:
 8000718:	2101      	movs	r1, #1
 800071a:	4b06      	ldr	r3, [pc, #24]	; (8000734 <stop_hardware_capture+0x1c>)
 800071c:	881a      	ldrh	r2, [r3, #0]
 800071e:	438a      	bics	r2, r1
 8000720:	801a      	strh	r2, [r3, #0]
 8000722:	2200      	movs	r2, #0
 8000724:	625a      	str	r2, [r3, #36]	; 0x24
 8000726:	4a04      	ldr	r2, [pc, #16]	; (8000738 <stop_hardware_capture+0x20>)
 8000728:	4904      	ldr	r1, [pc, #16]	; (800073c <stop_hardware_capture+0x24>)
 800072a:	6813      	ldr	r3, [r2, #0]
 800072c:	400b      	ands	r3, r1
 800072e:	6013      	str	r3, [r2, #0]
 8000730:	4770      	bx	lr
 8000732:	46c0      	nop			; (mov r8, r8)
 8000734:	40012c00 	.word	0x40012c00
 8000738:	40020008 	.word	0x40020008
 800073c:	0000fffe 	.word	0x0000fffe

08000740 <init_clk_pin>:
 8000740:	2380      	movs	r3, #128	; 0x80
 8000742:	b507      	push	{r0, r1, r2, lr}
 8000744:	009b      	lsls	r3, r3, #2
 8000746:	2200      	movs	r2, #0
 8000748:	9300      	str	r3, [sp, #0]
 800074a:	466b      	mov	r3, sp
 800074c:	715a      	strb	r2, [r3, #5]
 800074e:	719a      	strb	r2, [r3, #6]
 8000750:	2302      	movs	r3, #2
 8000752:	1a1b      	subs	r3, r3, r0
 8000754:	2090      	movs	r0, #144	; 0x90
 8000756:	466a      	mov	r2, sp
 8000758:	4669      	mov	r1, sp
 800075a:	05c0      	lsls	r0, r0, #23
 800075c:	7113      	strb	r3, [r2, #4]
 800075e:	f7ff ff97 	bl	8000690 <GPIO_Init>
 8000762:	bd07      	pop	{r0, r1, r2, pc}

08000764 <capture_start>:
 8000764:	b5f8      	push	{r3, r4, r5, r6, r7, lr}
 8000766:	2490      	movs	r4, #144	; 0x90
 8000768:	2702      	movs	r7, #2
 800076a:	2680      	movs	r6, #128	; 0x80
 800076c:	05e4      	lsls	r4, r4, #23
 800076e:	0005      	movs	r5, r0
 8000770:	2001      	movs	r0, #1
 8000772:	f7ff ffe5 	bl	8000740 <init_clk_pin>
 8000776:	00b6      	lsls	r6, r6, #2
 8000778:	61a7      	str	r7, [r4, #24]
 800077a:	f7ff ffc4 	bl	8000706 <small_delay>
 800077e:	61a6      	str	r6, [r4, #24]
 8000780:	f7ff ffc1 	bl	8000706 <small_delay>
 8000784:	8527      	strh	r7, [r4, #40]	; 0x28
 8000786:	f7ff ffbe 	bl	8000706 <small_delay>
 800078a:	8526      	strh	r6, [r4, #40]	; 0x28
 800078c:	2000      	movs	r0, #0
 800078e:	f7ff ffd7 	bl	8000740 <init_clk_pin>
 8000792:	2304      	movs	r3, #4
 8000794:	4a0b      	ldr	r2, [pc, #44]	; (80007c4 <capture_start+0x60>)
 8000796:	480c      	ldr	r0, [pc, #48]	; (80007c8 <capture_start+0x64>)
 8000798:	6891      	ldr	r1, [r2, #8]
 800079a:	430b      	orrs	r3, r1
 800079c:	6093      	str	r3, [r2, #8]
 800079e:	2300      	movs	r3, #0
 80007a0:	490a      	ldr	r1, [pc, #40]	; (80007cc <capture_start+0x68>)
 80007a2:	624b      	str	r3, [r1, #36]	; 0x24
 80007a4:	4b0a      	ldr	r3, [pc, #40]	; (80007d0 <capture_start+0x6c>)
 80007a6:	681a      	ldr	r2, [r3, #0]
 80007a8:	4002      	ands	r2, r0
 80007aa:	601a      	str	r2, [r3, #0]
 80007ac:	2280      	movs	r2, #128	; 0x80
 80007ae:	60dd      	str	r5, [r3, #12]
 80007b0:	605a      	str	r2, [r3, #4]
 80007b2:	6818      	ldr	r0, [r3, #0]
 80007b4:	3a7f      	subs	r2, #127	; 0x7f
 80007b6:	4310      	orrs	r0, r2
 80007b8:	6018      	str	r0, [r3, #0]
 80007ba:	880b      	ldrh	r3, [r1, #0]
 80007bc:	431a      	orrs	r2, r3
 80007be:	800a      	strh	r2, [r1, #0]
 80007c0:	bdf8      	pop	{r3, r4, r5, r6, r7, pc}
 80007c2:	46c0      	nop			; (mov r8, r8)
 80007c4:	40012400 	.word	0x40012400
 80007c8:	0000fffe 	.word	0x0000fffe
 80007cc:	40012c00 	.word	0x40012c00
 80007d0:	40020008 	.word	0x40020008

080007d4 <meas_handler>:
 80007d4:	b510      	push	{r4, lr}
 80007d6:	4c15      	ldr	r4, [pc, #84]	; (800082c <meas_handler+0x58>)
 80007d8:	7823      	ldrb	r3, [r4, #0]
 80007da:	b2d8      	uxtb	r0, r3
 80007dc:	2b03      	cmp	r3, #3
 80007de:	d80f      	bhi.n	8000800 <meas_handler+0x2c>
 80007e0:	f7ff fc70 	bl	80000c4 <__gnu_thumb1_case_uqi>
 80007e4:	1d1b0f02 	.word	0x1d1b0f02
 80007e8:	2290      	movs	r2, #144	; 0x90
 80007ea:	2318      	movs	r3, #24
 80007ec:	05d2      	lsls	r2, r2, #23
 80007ee:	8a91      	ldrh	r1, [r2, #20]
 80007f0:	430b      	orrs	r3, r1
 80007f2:	8293      	strh	r3, [r2, #20]
 80007f4:	4b0e      	ldr	r3, [pc, #56]	; (8000830 <meas_handler+0x5c>)
 80007f6:	6818      	ldr	r0, [r3, #0]
 80007f8:	f7ff ffb4 	bl	8000764 <capture_start>
 80007fc:	2301      	movs	r3, #1
 80007fe:	7023      	strb	r3, [r4, #0]
 8000800:	bd10      	pop	{r4, pc}
 8000802:	2290      	movs	r2, #144	; 0x90
 8000804:	2118      	movs	r1, #24
 8000806:	05d2      	lsls	r2, r2, #23
 8000808:	8a93      	ldrh	r3, [r2, #20]
 800080a:	438b      	bics	r3, r1
 800080c:	8293      	strh	r3, [r2, #20]
 800080e:	4b09      	ldr	r3, [pc, #36]	; (8000834 <meas_handler+0x60>)
 8000810:	6818      	ldr	r0, [r3, #0]
 8000812:	f7ff ffa7 	bl	8000764 <capture_start>
 8000816:	2303      	movs	r3, #3
 8000818:	e7f1      	b.n	80007fe <meas_handler+0x2a>
 800081a:	4b05      	ldr	r3, [pc, #20]	; (8000830 <meas_handler+0x5c>)
 800081c:	e7f8      	b.n	8000810 <meas_handler+0x3c>
 800081e:	2304      	movs	r3, #4
 8000820:	2200      	movs	r2, #0
 8000822:	7023      	strb	r3, [r4, #0]
 8000824:	4b04      	ldr	r3, [pc, #16]	; (8000838 <meas_handler+0x64>)
 8000826:	701a      	strb	r2, [r3, #0]
 8000828:	e7ea      	b.n	8000800 <meas_handler+0x2c>
 800082a:	46c0      	nop			; (mov r8, r8)
 800082c:	20000454 	.word	0x20000454
 8000830:	2000002c 	.word	0x2000002c
 8000834:	20000028 	.word	0x20000028
 8000838:	20000457 	.word	0x20000457

0800083c <DMA1_Channel1_IRQHandler>:
 800083c:	b510      	push	{r4, lr}
 800083e:	4c08      	ldr	r4, [pc, #32]	; (8000860 <DMA1_Channel1_IRQHandler+0x24>)
 8000840:	6823      	ldr	r3, [r4, #0]
 8000842:	079b      	lsls	r3, r3, #30
 8000844:	d503      	bpl.n	800084e <DMA1_Channel1_IRQHandler+0x12>
 8000846:	f7ff ff67 	bl	8000718 <stop_hardware_capture>
 800084a:	f7ff ffc3 	bl	80007d4 <meas_handler>
 800084e:	2308      	movs	r3, #8
 8000850:	6822      	ldr	r2, [r4, #0]
 8000852:	421a      	tst	r2, r3
 8000854:	d000      	beq.n	8000858 <DMA1_Channel1_IRQHandler+0x1c>
 8000856:	6063      	str	r3, [r4, #4]
 8000858:	2301      	movs	r3, #1
 800085a:	6063      	str	r3, [r4, #4]
 800085c:	bd10      	pop	{r4, pc}
 800085e:	46c0      	nop			; (mov r8, r8)
 8000860:	40020000 	.word	0x40020000

08000864 <SysTick_Handler>:
 8000864:	4770      	bx	lr

08000866 <NMI_Handler>:
 8000866:	4770      	bx	lr

08000868 <PendSV_Handler>:
 8000868:	4770      	bx	lr

0800086a <SVC_Handler>:
 800086a:	4770      	bx	lr

0800086c <HardFault_Handler>:
 800086c:	e7fe      	b.n	800086c <HardFault_Handler>
	...

08000870 <main>:
 8000870:	2201      	movs	r2, #1
 8000872:	b5f0      	push	{r4, r5, r6, r7, lr}
 8000874:	4ced      	ldr	r4, [pc, #948]	; (8000c2c <main+0x3bc>)
 8000876:	49ee      	ldr	r1, [pc, #952]	; (8000c30 <main+0x3c0>)
 8000878:	6823      	ldr	r3, [r4, #0]
 800087a:	20a0      	movs	r0, #160	; 0xa0
 800087c:	4313      	orrs	r3, r2
 800087e:	6023      	str	r3, [r4, #0]
 8000880:	6863      	ldr	r3, [r4, #4]
 8000882:	b0d5      	sub	sp, #340	; 0x154
 8000884:	400b      	ands	r3, r1
 8000886:	6063      	str	r3, [r4, #4]
 8000888:	6823      	ldr	r3, [r4, #0]
 800088a:	49ea      	ldr	r1, [pc, #936]	; (8000c34 <main+0x3c4>)
 800088c:	01c0      	lsls	r0, r0, #7
 800088e:	400b      	ands	r3, r1
 8000890:	6023      	str	r3, [r4, #0]
 8000892:	6823      	ldr	r3, [r4, #0]
 8000894:	49e8      	ldr	r1, [pc, #928]	; (8000c38 <main+0x3c8>)
 8000896:	400b      	ands	r3, r1
 8000898:	6023      	str	r3, [r4, #0]
 800089a:	6863      	ldr	r3, [r4, #4]
 800089c:	49e7      	ldr	r1, [pc, #924]	; (8000c3c <main+0x3cc>)
 800089e:	400b      	ands	r3, r1
 80008a0:	210f      	movs	r1, #15
 80008a2:	6063      	str	r3, [r4, #4]
 80008a4:	6ae3      	ldr	r3, [r4, #44]	; 0x2c
 80008a6:	438b      	bics	r3, r1
 80008a8:	62e3      	str	r3, [r4, #44]	; 0x2c
 80008aa:	6b23      	ldr	r3, [r4, #48]	; 0x30
 80008ac:	49e4      	ldr	r1, [pc, #912]	; (8000c40 <main+0x3d0>)
 80008ae:	400b      	ands	r3, r1
 80008b0:	6323      	str	r3, [r4, #48]	; 0x30
 80008b2:	6b63      	ldr	r3, [r4, #52]	; 0x34
 80008b4:	49e3      	ldr	r1, [pc, #908]	; (8000c44 <main+0x3d4>)
 80008b6:	4393      	bics	r3, r2
 80008b8:	6363      	str	r3, [r4, #52]	; 0x34
 80008ba:	2300      	movs	r3, #0
 80008bc:	60a3      	str	r3, [r4, #8]
 80008be:	700b      	strb	r3, [r1, #0]
 80008c0:	700a      	strb	r2, [r1, #0]
 80008c2:	2180      	movs	r1, #128	; 0x80
 80008c4:	9306      	str	r3, [sp, #24]
 80008c6:	0289      	lsls	r1, r1, #10
 80008c8:	6823      	ldr	r3, [r4, #0]
 80008ca:	9a06      	ldr	r2, [sp, #24]
 80008cc:	400b      	ands	r3, r1
 80008ce:	3201      	adds	r2, #1
 80008d0:	9206      	str	r2, [sp, #24]
 80008d2:	9a06      	ldr	r2, [sp, #24]
 80008d4:	4282      	cmp	r2, r0
 80008d6:	d001      	beq.n	80008dc <main+0x6c>
 80008d8:	2b00      	cmp	r3, #0
 80008da:	d0f5      	beq.n	80008c8 <main+0x58>
 80008dc:	6823      	ldr	r3, [r4, #0]
 80008de:	2201      	movs	r2, #1
 80008e0:	039b      	lsls	r3, r3, #14
 80008e2:	d53f      	bpl.n	8000964 <main+0xf4>
 80008e4:	2110      	movs	r1, #16
 80008e6:	4bd8      	ldr	r3, [pc, #864]	; (8000c48 <main+0x3d8>)
 80008e8:	6818      	ldr	r0, [r3, #0]
 80008ea:	4301      	orrs	r1, r0
 80008ec:	6019      	str	r1, [r3, #0]
 80008ee:	6819      	ldr	r1, [r3, #0]
 80008f0:	4391      	bics	r1, r2
 80008f2:	430a      	orrs	r2, r1
 80008f4:	601a      	str	r2, [r3, #0]
 80008f6:	22f0      	movs	r2, #240	; 0xf0
 80008f8:	6863      	ldr	r3, [r4, #4]
 80008fa:	4393      	bics	r3, r2
 80008fc:	6063      	str	r3, [r4, #4]
 80008fe:	6863      	ldr	r3, [r4, #4]
 8000900:	4ad2      	ldr	r2, [pc, #840]	; (8000c4c <main+0x3dc>)
 8000902:	4013      	ands	r3, r2
 8000904:	6063      	str	r3, [r4, #4]
 8000906:	6863      	ldr	r3, [r4, #4]
 8000908:	4ad1      	ldr	r2, [pc, #836]	; (8000c50 <main+0x3e0>)
 800090a:	4013      	ands	r3, r2
 800090c:	6063      	str	r3, [r4, #4]
 800090e:	2388      	movs	r3, #136	; 0x88
 8000910:	6862      	ldr	r2, [r4, #4]
 8000912:	035b      	lsls	r3, r3, #13
 8000914:	4313      	orrs	r3, r2
 8000916:	6063      	str	r3, [r4, #4]
 8000918:	2380      	movs	r3, #128	; 0x80
 800091a:	6822      	ldr	r2, [r4, #0]
 800091c:	045b      	lsls	r3, r3, #17
 800091e:	4313      	orrs	r3, r2
 8000920:	6023      	str	r3, [r4, #0]
 8000922:	2380      	movs	r3, #128	; 0x80
 8000924:	049b      	lsls	r3, r3, #18
 8000926:	6822      	ldr	r2, [r4, #0]
 8000928:	421a      	tst	r2, r3
 800092a:	d0fc      	beq.n	8000926 <main+0xb6>
 800092c:	2203      	movs	r2, #3
 800092e:	6863      	ldr	r3, [r4, #4]
 8000930:	210c      	movs	r1, #12
 8000932:	4393      	bics	r3, r2
 8000934:	001a      	movs	r2, r3
 8000936:	2302      	movs	r3, #2
 8000938:	4313      	orrs	r3, r2
 800093a:	6063      	str	r3, [r4, #4]
 800093c:	6862      	ldr	r2, [r4, #4]
 800093e:	400a      	ands	r2, r1
 8000940:	2a08      	cmp	r2, #8
 8000942:	d1fb      	bne.n	800093c <main+0xcc>
 8000944:	6863      	ldr	r3, [r4, #4]
 8000946:	4ec3      	ldr	r6, [pc, #780]	; (8000c54 <main+0x3e4>)
 8000948:	400b      	ands	r3, r1
 800094a:	2b08      	cmp	r3, #8
 800094c:	d100      	bne.n	8000950 <main+0xe0>
 800094e:	e304      	b.n	8000f5a <main+0x6ea>
 8000950:	4bc1      	ldr	r3, [pc, #772]	; (8000c58 <main+0x3e8>)
 8000952:	6033      	str	r3, [r6, #0]
 8000954:	6863      	ldr	r3, [r4, #4]
 8000956:	4ac1      	ldr	r2, [pc, #772]	; (8000c5c <main+0x3ec>)
 8000958:	061b      	lsls	r3, r3, #24
 800095a:	0f1b      	lsrs	r3, r3, #28
 800095c:	5cd3      	ldrb	r3, [r2, r3]
 800095e:	6832      	ldr	r2, [r6, #0]
 8000960:	40da      	lsrs	r2, r3
 8000962:	6032      	str	r2, [r6, #0]
 8000964:	a814      	add	r0, sp, #80	; 0x50
 8000966:	f7ff fdd9 	bl	800051c <RCC_GetClocksFreq>
 800096a:	9b15      	ldr	r3, [sp, #84]	; 0x54
 800096c:	a80a      	add	r0, sp, #40	; 0x28
 800096e:	9300      	str	r3, [sp, #0]
 8000970:	9305      	str	r3, [sp, #20]
 8000972:	f7ff fdd3 	bl	800051c <RCC_GetClocksFreq>
 8000976:	21fa      	movs	r1, #250	; 0xfa
 8000978:	980b      	ldr	r0, [sp, #44]	; 0x2c
 800097a:	0089      	lsls	r1, r1, #2
 800097c:	f7ff fbac 	bl	80000d8 <__udivsi3>
 8000980:	2380      	movs	r3, #128	; 0x80
 8000982:	3801      	subs	r0, #1
 8000984:	045b      	lsls	r3, r3, #17
 8000986:	4298      	cmp	r0, r3
 8000988:	d20d      	bcs.n	80009a6 <main+0x136>
 800098a:	21c0      	movs	r1, #192	; 0xc0
 800098c:	4ab4      	ldr	r2, [pc, #720]	; (8000c60 <main+0x3f0>)
 800098e:	0609      	lsls	r1, r1, #24
 8000990:	6050      	str	r0, [r2, #4]
 8000992:	48b4      	ldr	r0, [pc, #720]	; (8000c64 <main+0x3f4>)
 8000994:	6a03      	ldr	r3, [r0, #32]
 8000996:	021b      	lsls	r3, r3, #8
 8000998:	0a1b      	lsrs	r3, r3, #8
 800099a:	430b      	orrs	r3, r1
 800099c:	6203      	str	r3, [r0, #32]
 800099e:	2300      	movs	r3, #0
 80009a0:	6093      	str	r3, [r2, #8]
 80009a2:	3307      	adds	r3, #7
 80009a4:	6013      	str	r3, [r2, #0]
 80009a6:	2601      	movs	r6, #1
 80009a8:	69a3      	ldr	r3, [r4, #24]
 80009aa:	2590      	movs	r5, #144	; 0x90
 80009ac:	4333      	orrs	r3, r6
 80009ae:	61a3      	str	r3, [r4, #24]
 80009b0:	23c0      	movs	r3, #192	; 0xc0
 80009b2:	2702      	movs	r7, #2
 80009b4:	6962      	ldr	r2, [r4, #20]
 80009b6:	02db      	lsls	r3, r3, #11
 80009b8:	05ed      	lsls	r5, r5, #23
 80009ba:	4313      	orrs	r3, r2
 80009bc:	6163      	str	r3, [r4, #20]
 80009be:	0028      	movs	r0, r5
 80009c0:	a914      	add	r1, sp, #80	; 0x50
 80009c2:	9714      	str	r7, [sp, #80]	; 0x50
 80009c4:	9615      	str	r6, [sp, #84]	; 0x54
 80009c6:	f7ff fe63 	bl	8000690 <GPIO_Init>
 80009ca:	0030      	movs	r0, r6
 80009cc:	f7ff feb8 	bl	8000740 <init_clk_pin>
 80009d0:	22f0      	movs	r2, #240	; 0xf0
 80009d2:	6a6b      	ldr	r3, [r5, #36]	; 0x24
 80009d4:	a904      	add	r1, sp, #16
 80009d6:	4393      	bics	r3, r2
 80009d8:	626b      	str	r3, [r5, #36]	; 0x24
 80009da:	2320      	movs	r3, #32
 80009dc:	6a6a      	ldr	r2, [r5, #36]	; 0x24
 80009de:	0028      	movs	r0, r5
 80009e0:	4313      	orrs	r3, r2
 80009e2:	2244      	movs	r2, #68	; 0x44
 80009e4:	626b      	str	r3, [r5, #36]	; 0x24
 80009e6:	2303      	movs	r3, #3
 80009e8:	1889      	adds	r1, r1, r2
 80009ea:	700b      	strb	r3, [r1, #0]
 80009ec:	a914      	add	r1, sp, #80	; 0x50
 80009ee:	9614      	str	r6, [sp, #80]	; 0x50
 80009f0:	f7ff fe4e 	bl	8000690 <GPIO_Init>
 80009f4:	2318      	movs	r3, #24
 80009f6:	2244      	movs	r2, #68	; 0x44
 80009f8:	9314      	str	r3, [sp, #80]	; 0x50
 80009fa:	ab04      	add	r3, sp, #16
 80009fc:	189b      	adds	r3, r3, r2
 80009fe:	0028      	movs	r0, r5
 8000a00:	a914      	add	r1, sp, #80	; 0x50
 8000a02:	701e      	strb	r6, [r3, #0]
 8000a04:	f7ff fe44 	bl	8000690 <GPIO_Init>
 8000a08:	2244      	movs	r2, #68	; 0x44
 8000a0a:	4d97      	ldr	r5, [pc, #604]	; (8000c68 <main+0x3f8>)
 8000a0c:	ab04      	add	r3, sp, #16
 8000a0e:	189b      	adds	r3, r3, r2
 8000a10:	a914      	add	r1, sp, #80	; 0x50
 8000a12:	0028      	movs	r0, r5
 8000a14:	9714      	str	r7, [sp, #80]	; 0x50
 8000a16:	701e      	strb	r6, [r3, #0]
 8000a18:	f7ff fe3a 	bl	8000690 <GPIO_Init>
 8000a1c:	8aab      	ldrh	r3, [r5, #20]
 8000a1e:	a814      	add	r0, sp, #80	; 0x50
 8000a20:	431f      	orrs	r7, r3
 8000a22:	82af      	strh	r7, [r5, #20]
 8000a24:	f7ff fd7a 	bl	800051c <RCC_GetClocksFreq>
 8000a28:	9b15      	ldr	r3, [sp, #84]	; 0x54
 8000a2a:	4990      	ldr	r1, [pc, #576]	; (8000c6c <main+0x3fc>)
 8000a2c:	0018      	movs	r0, r3
 8000a2e:	9300      	str	r3, [sp, #0]
 8000a30:	f7ff fb52 	bl	80000d8 <__udivsi3>
 8000a34:	23fa      	movs	r3, #250	; 0xfa
 8000a36:	009b      	lsls	r3, r3, #2
 8000a38:	4343      	muls	r3, r0
 8000a3a:	9307      	str	r3, [sp, #28]
 8000a3c:	9b07      	ldr	r3, [sp, #28]
 8000a3e:	2b00      	cmp	r3, #0
 8000a40:	d000      	beq.n	8000a44 <main+0x1d4>
 8000a42:	e29f      	b.n	8000f84 <main+0x714>
 8000a44:	2380      	movs	r3, #128	; 0x80
 8000a46:	6962      	ldr	r2, [r4, #20]
 8000a48:	029b      	lsls	r3, r3, #10
 8000a4a:	4313      	orrs	r3, r2
 8000a4c:	6163      	str	r3, [r4, #20]
 8000a4e:	2380      	movs	r3, #128	; 0x80
 8000a50:	69a2      	ldr	r2, [r4, #24]
 8000a52:	01db      	lsls	r3, r3, #7
 8000a54:	4313      	orrs	r3, r2
 8000a56:	2203      	movs	r2, #3
 8000a58:	2090      	movs	r0, #144	; 0x90
 8000a5a:	61a3      	str	r3, [r4, #24]
 8000a5c:	6b23      	ldr	r3, [r4, #48]	; 0x30
 8000a5e:	05c0      	lsls	r0, r0, #23
 8000a60:	4393      	bics	r3, r2
 8000a62:	6323      	str	r3, [r4, #48]	; 0x30
 8000a64:	6b22      	ldr	r2, [r4, #48]	; 0x30
 8000a66:	4b82      	ldr	r3, [pc, #520]	; (8000c70 <main+0x400>)
 8000a68:	a908      	add	r1, sp, #32
 8000a6a:	4313      	orrs	r3, r2
 8000a6c:	6323      	str	r3, [r4, #48]	; 0x30
 8000a6e:	6a03      	ldr	r3, [r0, #32]
 8000a70:	4a80      	ldr	r2, [pc, #512]	; (8000c74 <main+0x404>)
 8000a72:	4e81      	ldr	r6, [pc, #516]	; (8000c78 <main+0x408>)
 8000a74:	4013      	ands	r3, r2
 8000a76:	6203      	str	r3, [r0, #32]
 8000a78:	2380      	movs	r3, #128	; 0x80
 8000a7a:	6a02      	ldr	r2, [r0, #32]
 8000a7c:	005b      	lsls	r3, r3, #1
 8000a7e:	4313      	orrs	r3, r2
 8000a80:	6203      	str	r3, [r0, #32]
 8000a82:	2304      	movs	r3, #4
 8000a84:	9308      	str	r3, [sp, #32]
 8000a86:	4b7d      	ldr	r3, [pc, #500]	; (8000c7c <main+0x40c>)
 8000a88:	4d7d      	ldr	r5, [pc, #500]	; (8000c80 <main+0x410>)
 8000a8a:	9309      	str	r3, [sp, #36]	; 0x24
 8000a8c:	f7ff fe00 	bl	8000690 <GPIO_Init>
 8000a90:	2201      	movs	r2, #1
 8000a92:	6833      	ldr	r3, [r6, #0]
 8000a94:	a814      	add	r0, sp, #80	; 0x50
 8000a96:	4393      	bics	r3, r2
 8000a98:	6033      	str	r3, [r6, #0]
 8000a9a:	6873      	ldr	r3, [r6, #4]
 8000a9c:	4a79      	ldr	r2, [pc, #484]	; (8000c84 <main+0x414>)
 8000a9e:	4013      	ands	r3, r2
 8000aa0:	6073      	str	r3, [r6, #4]
 8000aa2:	6833      	ldr	r3, [r6, #0]
 8000aa4:	4a78      	ldr	r2, [pc, #480]	; (8000c88 <main+0x418>)
 8000aa6:	401a      	ands	r2, r3
 8000aa8:	2308      	movs	r3, #8
 8000aaa:	4313      	orrs	r3, r2
 8000aac:	6033      	str	r3, [r6, #0]
 8000aae:	68b3      	ldr	r3, [r6, #8]
 8000ab0:	402b      	ands	r3, r5
 8000ab2:	60b3      	str	r3, [r6, #8]
 8000ab4:	f7ff fd32 	bl	800051c <RCC_GetClocksFreq>
 8000ab8:	6833      	ldr	r3, [r6, #0]
 8000aba:	9f1a      	ldr	r7, [sp, #104]	; 0x68
 8000abc:	9501      	str	r5, [sp, #4]
 8000abe:	041b      	lsls	r3, r3, #16
 8000ac0:	d500      	bpl.n	8000ac4 <main+0x254>
 8000ac2:	007f      	lsls	r7, r7, #1
 8000ac4:	21e1      	movs	r1, #225	; 0xe1
 8000ac6:	0038      	movs	r0, r7
 8000ac8:	0249      	lsls	r1, r1, #9
 8000aca:	f7ff fb05 	bl	80000d8 <__udivsi3>
 8000ace:	21e1      	movs	r1, #225	; 0xe1
 8000ad0:	0005      	movs	r5, r0
 8000ad2:	0249      	lsls	r1, r1, #9
 8000ad4:	0038      	movs	r0, r7
 8000ad6:	f7ff fb85 	bl	80001e4 <__aeabi_uidivmod>
 8000ada:	22e1      	movs	r2, #225	; 0xe1
 8000adc:	2300      	movs	r3, #0
 8000ade:	0212      	lsls	r2, r2, #8
 8000ae0:	4291      	cmp	r1, r2
 8000ae2:	415b      	adcs	r3, r3
 8000ae4:	18ed      	adds	r5, r5, r3
 8000ae6:	6833      	ldr	r3, [r6, #0]
 8000ae8:	041b      	lsls	r3, r3, #16
 8000aea:	d504      	bpl.n	8000af6 <main+0x286>
 8000aec:	4867      	ldr	r0, [pc, #412]	; (8000c8c <main+0x41c>)
 8000aee:	072b      	lsls	r3, r5, #28
 8000af0:	0f5b      	lsrs	r3, r3, #29
 8000af2:	4005      	ands	r5, r0
 8000af4:	431d      	orrs	r5, r3
 8000af6:	2280      	movs	r2, #128	; 0x80
 8000af8:	b2ad      	uxth	r5, r5
 8000afa:	81b5      	strh	r5, [r6, #12]
 8000afc:	2501      	movs	r5, #1
 8000afe:	2180      	movs	r1, #128	; 0x80
 8000b00:	68b3      	ldr	r3, [r6, #8]
 8000b02:	0109      	lsls	r1, r1, #4
 8000b04:	4313      	orrs	r3, r2
 8000b06:	60b3      	str	r3, [r6, #8]
 8000b08:	6833      	ldr	r3, [r6, #0]
 8000b0a:	4861      	ldr	r0, [pc, #388]	; (8000c90 <main+0x420>)
 8000b0c:	432b      	orrs	r3, r5
 8000b0e:	6033      	str	r3, [r6, #0]
 8000b10:	69a3      	ldr	r3, [r4, #24]
 8000b12:	26c0      	movs	r6, #192	; 0xc0
 8000b14:	430b      	orrs	r3, r1
 8000b16:	61a3      	str	r3, [r4, #24]
 8000b18:	68e3      	ldr	r3, [r4, #12]
 8000b1a:	4f5e      	ldr	r7, [pc, #376]	; (8000c94 <main+0x424>)
 8000b1c:	430b      	orrs	r3, r1
 8000b1e:	60e3      	str	r3, [r4, #12]
 8000b20:	68e3      	ldr	r3, [r4, #12]
 8000b22:	495d      	ldr	r1, [pc, #372]	; (8000c98 <main+0x428>)
 8000b24:	4003      	ands	r3, r0
 8000b26:	60e3      	str	r3, [r4, #12]
 8000b28:	4b4a      	ldr	r3, [pc, #296]	; (8000c54 <main+0x3e4>)
 8000b2a:	01f6      	lsls	r6, r6, #7
 8000b2c:	681b      	ldr	r3, [r3, #0]
 8000b2e:	0018      	movs	r0, r3
 8000b30:	9302      	str	r3, [sp, #8]
 8000b32:	f7ff fad1 	bl	80000d8 <__udivsi3>
 8000b36:	4b59      	ldr	r3, [pc, #356]	; (8000c9c <main+0x42c>)
 8000b38:	9000      	str	r0, [sp, #0]
 8000b3a:	881a      	ldrh	r2, [r3, #0]
 8000b3c:	1e41      	subs	r1, r0, #1
 8000b3e:	4858      	ldr	r0, [pc, #352]	; (8000ca0 <main+0x430>)
 8000b40:	4002      	ands	r2, r0
 8000b42:	801a      	strh	r2, [r3, #0]
 8000b44:	2200      	movs	r2, #0
 8000b46:	62d9      	str	r1, [r3, #44]	; 0x2c
 8000b48:	2110      	movs	r1, #16
 8000b4a:	851a      	strh	r2, [r3, #40]	; 0x28
 8000b4c:	861a      	strh	r2, [r3, #48]	; 0x30
 8000b4e:	829d      	strh	r5, [r3, #20]
 8000b50:	8c1a      	ldrh	r2, [r3, #32]
 8000b52:	438a      	bics	r2, r1
 8000b54:	841a      	strh	r2, [r3, #32]
 8000b56:	8c1a      	ldrh	r2, [r3, #32]
 8000b58:	8898      	ldrh	r0, [r3, #4]
 8000b5a:	8b19      	ldrh	r1, [r3, #24]
 8000b5c:	4039      	ands	r1, r7
 8000b5e:	4331      	orrs	r1, r6
 8000b60:	26e0      	movs	r6, #224	; 0xe0
 8000b62:	43b2      	bics	r2, r6
 8000b64:	3eb0      	subs	r6, #176	; 0xb0
 8000b66:	4332      	orrs	r2, r6
 8000b68:	4e4e      	ldr	r6, [pc, #312]	; (8000ca4 <main+0x434>)
 8000b6a:	4030      	ands	r0, r6
 8000b6c:	8098      	strh	r0, [r3, #4]
 8000b6e:	8319      	strh	r1, [r3, #24]
 8000b70:	210a      	movs	r1, #10
 8000b72:	6399      	str	r1, [r3, #56]	; 0x38
 8000b74:	841a      	strh	r2, [r3, #32]
 8000b76:	8c1a      	ldrh	r2, [r3, #32]
 8000b78:	494b      	ldr	r1, [pc, #300]	; (8000ca8 <main+0x438>)
 8000b7a:	9800      	ldr	r0, [sp, #0]
 8000b7c:	400a      	ands	r2, r1
 8000b7e:	841a      	strh	r2, [r3, #32]
 8000b80:	8c1e      	ldrh	r6, [r3, #32]
 8000b82:	8899      	ldrh	r1, [r3, #4]
 8000b84:	46b4      	mov	ip, r6
 8000b86:	26c0      	movs	r6, #192	; 0xc0
 8000b88:	8b9a      	ldrh	r2, [r3, #28]
 8000b8a:	01f6      	lsls	r6, r6, #7
 8000b8c:	4017      	ands	r7, r2
 8000b8e:	433e      	orrs	r6, r7
 8000b90:	4667      	mov	r7, ip
 8000b92:	4a46      	ldr	r2, [pc, #280]	; (8000cac <main+0x43c>)
 8000b94:	380b      	subs	r0, #11
 8000b96:	403a      	ands	r2, r7
 8000b98:	27c0      	movs	r7, #192	; 0xc0
 8000b9a:	01bf      	lsls	r7, r7, #6
 8000b9c:	433a      	orrs	r2, r7
 8000b9e:	4f44      	ldr	r7, [pc, #272]	; (8000cb0 <main+0x440>)
 8000ba0:	4039      	ands	r1, r7
 8000ba2:	8099      	strh	r1, [r3, #4]
 8000ba4:	2180      	movs	r1, #128	; 0x80
 8000ba6:	839e      	strh	r6, [r3, #28]
 8000ba8:	6418      	str	r0, [r3, #64]	; 0x40
 8000baa:	841a      	strh	r2, [r3, #32]
 8000bac:	8b1a      	ldrh	r2, [r3, #24]
 8000bae:	4838      	ldr	r0, [pc, #224]	; (8000c90 <main+0x420>)
 8000bb0:	0109      	lsls	r1, r1, #4
 8000bb2:	4002      	ands	r2, r0
 8000bb4:	430a      	orrs	r2, r1
 8000bb6:	831a      	strh	r2, [r3, #24]
 8000bb8:	8b9a      	ldrh	r2, [r3, #28]
 8000bba:	4002      	ands	r2, r0
 8000bbc:	430a      	orrs	r2, r1
 8000bbe:	2180      	movs	r1, #128	; 0x80
 8000bc0:	839a      	strh	r2, [r3, #28]
 8000bc2:	881a      	ldrh	r2, [r3, #0]
 8000bc4:	430a      	orrs	r2, r1
 8000bc6:	2180      	movs	r1, #128	; 0x80
 8000bc8:	801a      	strh	r2, [r3, #0]
 8000bca:	4a3a      	ldr	r2, [pc, #232]	; (8000cb4 <main+0x444>)
 8000bcc:	0209      	lsls	r1, r1, #8
 8000bce:	8fd3      	ldrh	r3, [r2, #62]	; 0x3e
 8000bd0:	430b      	orrs	r3, r1
 8000bd2:	87d3      	strh	r3, [r2, #62]	; 0x3e
 8000bd4:	2380      	movs	r3, #128	; 0x80
 8000bd6:	69a2      	ldr	r2, [r4, #24]
 8000bd8:	009b      	lsls	r3, r3, #2
 8000bda:	4313      	orrs	r3, r2
 8000bdc:	61a3      	str	r3, [r4, #24]
 8000bde:	6863      	ldr	r3, [r4, #4]
 8000be0:	4935      	ldr	r1, [pc, #212]	; (8000cb8 <main+0x448>)
 8000be2:	401f      	ands	r7, r3
 8000be4:	2380      	movs	r3, #128	; 0x80
 8000be6:	6067      	str	r7, [r4, #4]
 8000be8:	6862      	ldr	r2, [r4, #4]
 8000bea:	01db      	lsls	r3, r3, #7
 8000bec:	4313      	orrs	r3, r2
 8000bee:	6063      	str	r3, [r4, #4]
 8000bf0:	6b23      	ldr	r3, [r4, #48]	; 0x30
 8000bf2:	4a32      	ldr	r2, [pc, #200]	; (8000cbc <main+0x44c>)
 8000bf4:	4013      	ands	r3, r2
 8000bf6:	6323      	str	r3, [r4, #48]	; 0x30
 8000bf8:	2380      	movs	r3, #128	; 0x80
 8000bfa:	6b22      	ldr	r2, [r4, #48]	; 0x30
 8000bfc:	005b      	lsls	r3, r3, #1
 8000bfe:	4313      	orrs	r3, r2
 8000c00:	6323      	str	r3, [r4, #48]	; 0x30
 8000c02:	4b2f      	ldr	r3, [pc, #188]	; (8000cc0 <main+0x450>)
 8000c04:	68da      	ldr	r2, [r3, #12]
 8000c06:	4011      	ands	r1, r2
 8000c08:	2288      	movs	r2, #136	; 0x88
 8000c0a:	00d2      	lsls	r2, r2, #3
 8000c0c:	430a      	orrs	r2, r1
 8000c0e:	60da      	str	r2, [r3, #12]
 8000c10:	6a9a      	ldr	r2, [r3, #40]	; 0x28
 8000c12:	2102      	movs	r1, #2
 8000c14:	432a      	orrs	r2, r5
 8000c16:	629a      	str	r2, [r3, #40]	; 0x28
 8000c18:	2200      	movs	r2, #0
 8000c1a:	615a      	str	r2, [r3, #20]
 8000c1c:	68da      	ldr	r2, [r3, #12]
 8000c1e:	438a      	bics	r2, r1
 8000c20:	60da      	str	r2, [r3, #12]
 8000c22:	68da      	ldr	r2, [r3, #12]
 8000c24:	60da      	str	r2, [r3, #12]
 8000c26:	68da      	ldr	r2, [r3, #12]
 8000c28:	432a      	orrs	r2, r5
 8000c2a:	e04b      	b.n	8000cc4 <main+0x454>
 8000c2c:	40021000 	.word	0x40021000
 8000c30:	08ffb80c 	.word	0x08ffb80c
 8000c34:	fef6ffff 	.word	0xfef6ffff
 8000c38:	fffbffff 	.word	0xfffbffff
 8000c3c:	ffc0ffff 	.word	0xffc0ffff
 8000c40:	fff0feac 	.word	0xfff0feac
 8000c44:	40021002 	.word	0x40021002
 8000c48:	40022000 	.word	0x40022000
 8000c4c:	fffff8ff 	.word	0xfffff8ff
 8000c50:	ffc27fff 	.word	0xffc27fff
 8000c54:	20000024 	.word	0x20000024
 8000c58:	007a1200 	.word	0x007a1200
 8000c5c:	20000000 	.word	0x20000000
 8000c60:	e000e010 	.word	0xe000e010
 8000c64:	e000ed00 	.word	0xe000ed00
 8000c68:	48000400 	.word	0x48000400
 8000c6c:	00002710 	.word	0x00002710
 8000c70:	10000001 	.word	0x10000001
 8000c74:	fffff0ff 	.word	0xfffff0ff
 8000c78:	40013800 	.word	0x40013800
 8000c7c:	00000302 	.word	0x00000302
 8000c80:	fffffcff 	.word	0xfffffcff
 8000c84:	ffffcfff 	.word	0xffffcfff
 8000c88:	ffffe9f3 	.word	0xffffe9f3
 8000c8c:	0000fff0 	.word	0x0000fff0
 8000c90:	fffff7ff 	.word	0xfffff7ff
 8000c94:	ffff8cff 	.word	0xffff8cff
 8000c98:	00075300 	.word	0x00075300
 8000c9c:	40012c00 	.word	0x40012c00
 8000ca0:	fffffc8f 	.word	0xfffffc8f
 8000ca4:	fffff3ff 	.word	0xfffff3ff
 8000ca8:	ffffefff 	.word	0xffffefff
 8000cac:	ffffdfff 	.word	0xffffdfff
 8000cb0:	ffffbfff 	.word	0xffffbfff
 8000cb4:	40012c06 	.word	0x40012c06
 8000cb8:	ffffd203 	.word	0xffffd203
 8000cbc:	fffffeff 	.word	0xfffffeff
 8000cc0:	40012400 	.word	0x40012400
 8000cc4:	60da      	str	r2, [r3, #12]
 8000cc6:	689a      	ldr	r2, [r3, #8]
 8000cc8:	432a      	orrs	r2, r5
 8000cca:	609a      	str	r2, [r3, #8]
 8000ccc:	9500      	str	r5, [sp, #0]
 8000cce:	681a      	ldr	r2, [r3, #0]
 8000cd0:	9900      	ldr	r1, [sp, #0]
 8000cd2:	4011      	ands	r1, r2
 8000cd4:	9103      	str	r1, [sp, #12]
 8000cd6:	9900      	ldr	r1, [sp, #0]
 8000cd8:	420a      	tst	r2, r1
 8000cda:	d0f8      	beq.n	8000cce <main+0x45e>
 8000cdc:	2104      	movs	r1, #4
 8000cde:	689a      	ldr	r2, [r3, #8]
 8000ce0:	4ed5      	ldr	r6, [pc, #852]	; (8001038 <main+0x7c8>)
 8000ce2:	430a      	orrs	r2, r1
 8000ce4:	609a      	str	r2, [r3, #8]
 8000ce6:	6963      	ldr	r3, [r4, #20]
 8000ce8:	9a00      	ldr	r2, [sp, #0]
 8000cea:	2700      	movs	r7, #0
 8000cec:	4313      	orrs	r3, r2
 8000cee:	6163      	str	r3, [r4, #20]
 8000cf0:	6833      	ldr	r3, [r6, #0]
 8000cf2:	4ad2      	ldr	r2, [pc, #840]	; (800103c <main+0x7cc>)
 8000cf4:	49d2      	ldr	r1, [pc, #840]	; (8001040 <main+0x7d0>)
 8000cf6:	4013      	ands	r3, r2
 8000cf8:	6033      	str	r3, [r6, #0]
 8000cfa:	230f      	movs	r3, #15
 8000cfc:	6037      	str	r7, [r6, #0]
 8000cfe:	6077      	str	r7, [r6, #4]
 8000d00:	60b7      	str	r7, [r6, #8]
 8000d02:	60f7      	str	r7, [r6, #12]
 8000d04:	684a      	ldr	r2, [r1, #4]
 8000d06:	ad14      	add	r5, sp, #80	; 0x50
 8000d08:	4313      	orrs	r3, r2
 8000d0a:	604b      	str	r3, [r1, #4]
 8000d0c:	4bcd      	ldr	r3, [pc, #820]	; (8001044 <main+0x7d4>)
 8000d0e:	0029      	movs	r1, r5
 8000d10:	9314      	str	r3, [sp, #80]	; 0x50
 8000d12:	4bcd      	ldr	r3, [pc, #820]	; (8001048 <main+0x7d8>)
 8000d14:	0030      	movs	r0, r6
 8000d16:	606b      	str	r3, [r5, #4]
 8000d18:	2380      	movs	r3, #128	; 0x80
 8000d1a:	60eb      	str	r3, [r5, #12]
 8000d1c:	616b      	str	r3, [r5, #20]
 8000d1e:	18db      	adds	r3, r3, r3
 8000d20:	61ab      	str	r3, [r5, #24]
 8000d22:	2380      	movs	r3, #128	; 0x80
 8000d24:	00db      	lsls	r3, r3, #3
 8000d26:	61eb      	str	r3, [r5, #28]
 8000d28:	23c0      	movs	r3, #192	; 0xc0
 8000d2a:	019b      	lsls	r3, r3, #6
 8000d2c:	60af      	str	r7, [r5, #8]
 8000d2e:	612f      	str	r7, [r5, #16]
 8000d30:	622f      	str	r7, [r5, #32]
 8000d32:	626b      	str	r3, [r5, #36]	; 0x24
 8000d34:	62af      	str	r7, [r5, #40]	; 0x28
 8000d36:	f7ff fbd3 	bl	80004e0 <DMA_Init>
 8000d3a:	6833      	ldr	r3, [r6, #0]
 8000d3c:	9800      	ldr	r0, [sp, #0]
 8000d3e:	0029      	movs	r1, r5
 8000d40:	4303      	orrs	r3, r0
 8000d42:	6033      	str	r3, [r6, #0]
 8000d44:	48c1      	ldr	r0, [pc, #772]	; (800104c <main+0x7dc>)
 8000d46:	f7ff fbcb 	bl	80004e0 <DMA_Init>
 8000d4a:	2002      	movs	r0, #2
 8000d4c:	21c2      	movs	r1, #194	; 0xc2
 8000d4e:	6833      	ldr	r3, [r6, #0]
 8000d50:	0089      	lsls	r1, r1, #2
 8000d52:	4303      	orrs	r3, r0
 8000d54:	48be      	ldr	r0, [pc, #760]	; (8001050 <main+0x7e0>)
 8000d56:	6033      	str	r3, [r6, #0]
 8000d58:	5842      	ldr	r2, [r0, r1]
 8000d5a:	4bbe      	ldr	r3, [pc, #760]	; (8001054 <main+0x7e4>)
 8000d5c:	4eb7      	ldr	r6, [pc, #732]	; (800103c <main+0x7cc>)
 8000d5e:	401a      	ands	r2, r3
 8000d60:	2380      	movs	r3, #128	; 0x80
 8000d62:	01db      	lsls	r3, r3, #7
 8000d64:	4313      	orrs	r3, r2
 8000d66:	5043      	str	r3, [r0, r1]
 8000d68:	2380      	movs	r3, #128	; 0x80
 8000d6a:	21f0      	movs	r1, #240	; 0xf0
 8000d6c:	009b      	lsls	r3, r3, #2
 8000d6e:	6003      	str	r3, [r0, #0]
 8000d70:	6963      	ldr	r3, [r4, #20]
 8000d72:	9a00      	ldr	r2, [sp, #0]
 8000d74:	48b5      	ldr	r0, [pc, #724]	; (800104c <main+0x7dc>)
 8000d76:	4313      	orrs	r3, r2
 8000d78:	4ab4      	ldr	r2, [pc, #720]	; (800104c <main+0x7dc>)
 8000d7a:	6163      	str	r3, [r4, #20]
 8000d7c:	6813      	ldr	r3, [r2, #0]
 8000d7e:	4033      	ands	r3, r6
 8000d80:	6013      	str	r3, [r2, #0]
 8000d82:	6017      	str	r7, [r2, #0]
 8000d84:	6057      	str	r7, [r2, #4]
 8000d86:	6097      	str	r7, [r2, #8]
 8000d88:	60d7      	str	r7, [r2, #12]
 8000d8a:	4aad      	ldr	r2, [pc, #692]	; (8001040 <main+0x7d0>)
 8000d8c:	2680      	movs	r6, #128	; 0x80
 8000d8e:	6853      	ldr	r3, [r2, #4]
 8000d90:	430b      	orrs	r3, r1
 8000d92:	6053      	str	r3, [r2, #4]
 8000d94:	4bb0      	ldr	r3, [pc, #704]	; (8001058 <main+0x7e8>)
 8000d96:	220a      	movs	r2, #10
 8000d98:	9314      	str	r3, [sp, #80]	; 0x50
 8000d9a:	2380      	movs	r3, #128	; 0x80
 8000d9c:	059b      	lsls	r3, r3, #22
 8000d9e:	606b      	str	r3, [r5, #4]
 8000da0:	2310      	movs	r3, #16
 8000da2:	60ab      	str	r3, [r5, #8]
 8000da4:	2380      	movs	r3, #128	; 0x80
 8000da6:	015b      	lsls	r3, r3, #5
 8000da8:	626b      	str	r3, [r5, #36]	; 0x24
 8000daa:	4bac      	ldr	r3, [pc, #688]	; (800105c <main+0x7ec>)
 8000dac:	612f      	str	r7, [r5, #16]
 8000dae:	616e      	str	r6, [r5, #20]
 8000db0:	61af      	str	r7, [r5, #24]
 8000db2:	61ef      	str	r7, [r5, #28]
 8000db4:	622f      	str	r7, [r5, #32]
 8000db6:	62af      	str	r7, [r5, #40]	; 0x28
 8000db8:	60ea      	str	r2, [r5, #12]
 8000dba:	681a      	ldr	r2, [r3, #0]
 8000dbc:	438a      	bics	r2, r1
 8000dbe:	601a      	str	r2, [r3, #0]
 8000dc0:	681a      	ldr	r2, [r3, #0]
 8000dc2:	0029      	movs	r1, r5
 8000dc4:	4332      	orrs	r2, r6
 8000dc6:	601a      	str	r2, [r3, #0]
 8000dc8:	f7ff fb8a 	bl	80004e0 <DMA_Init>
 8000dcc:	2380      	movs	r3, #128	; 0x80
 8000dce:	69a2      	ldr	r2, [r4, #24]
 8000dd0:	02db      	lsls	r3, r3, #11
 8000dd2:	4313      	orrs	r3, r2
 8000dd4:	61a3      	str	r3, [r4, #24]
 8000dd6:	9614      	str	r6, [sp, #80]	; 0x50
 8000dd8:	2690      	movs	r6, #144	; 0x90
 8000dda:	4ba1      	ldr	r3, [pc, #644]	; (8001060 <main+0x7f0>)
 8000ddc:	05f6      	lsls	r6, r6, #23
 8000dde:	0029      	movs	r1, r5
 8000de0:	0030      	movs	r0, r6
 8000de2:	9315      	str	r3, [sp, #84]	; 0x54
 8000de4:	f7ff fc54 	bl	8000690 <GPIO_Init>
 8000de8:	6a33      	ldr	r3, [r6, #32]
 8000dea:	9802      	ldr	r0, [sp, #8]
 8000dec:	011b      	lsls	r3, r3, #4
 8000dee:	091b      	lsrs	r3, r3, #4
 8000df0:	6233      	str	r3, [r6, #32]
 8000df2:	23a0      	movs	r3, #160	; 0xa0
 8000df4:	6a32      	ldr	r2, [r6, #32]
 8000df6:	05db      	lsls	r3, r3, #23
 8000df8:	4313      	orrs	r3, r2
 8000dfa:	6233      	str	r3, [r6, #32]
 8000dfc:	4999      	ldr	r1, [pc, #612]	; (8001064 <main+0x7f4>)
 8000dfe:	f7ff f96b 	bl	80000d8 <__udivsi3>
 8000e02:	3801      	subs	r0, #1
 8000e04:	b283      	uxth	r3, r0
 8000e06:	469c      	mov	ip, r3
 8000e08:	4b97      	ldr	r3, [pc, #604]	; (8001068 <main+0x7f8>)
 8000e0a:	9901      	ldr	r1, [sp, #4]
 8000e0c:	881a      	ldrh	r2, [r3, #0]
 8000e0e:	4e97      	ldr	r6, [pc, #604]	; (800106c <main+0x7fc>)
 8000e10:	400a      	ands	r2, r1
 8000e12:	801a      	strh	r2, [r3, #0]
 8000e14:	4662      	mov	r2, ip
 8000e16:	62de      	str	r6, [r3, #44]	; 0x2c
 8000e18:	851a      	strh	r2, [r3, #40]	; 0x28
 8000e1a:	9a00      	ldr	r2, [sp, #0]
 8000e1c:	861f      	strh	r7, [r3, #48]	; 0x30
 8000e1e:	829a      	strh	r2, [r3, #20]
 8000e20:	8c1a      	ldrh	r2, [r3, #32]
 8000e22:	9900      	ldr	r1, [sp, #0]
 8000e24:	438a      	bics	r2, r1
 8000e26:	841a      	strh	r2, [r3, #32]
 8000e28:	22f3      	movs	r2, #243	; 0xf3
 8000e2a:	8b19      	ldrh	r1, [r3, #24]
 8000e2c:	8c18      	ldrh	r0, [r3, #32]
 8000e2e:	4391      	bics	r1, r2
 8000e30:	3a02      	subs	r2, #2
 8000e32:	4311      	orrs	r1, r2
 8000e34:	8319      	strh	r1, [r3, #24]
 8000e36:	210c      	movs	r1, #12
 8000e38:	3ae7      	subs	r2, #231	; 0xe7
 8000e3a:	4390      	bics	r0, r2
 8000e3c:	3a07      	subs	r2, #7
 8000e3e:	4302      	orrs	r2, r0
 8000e40:	841a      	strh	r2, [r3, #32]
 8000e42:	8b1a      	ldrh	r2, [r3, #24]
 8000e44:	4882      	ldr	r0, [pc, #520]	; (8001050 <main+0x7e0>)
 8000e46:	438a      	bics	r2, r1
 8000e48:	831a      	strh	r2, [r3, #24]
 8000e4a:	8b1a      	ldrh	r2, [r3, #24]
 8000e4c:	390a      	subs	r1, #10
 8000e4e:	b292      	uxth	r2, r2
 8000e50:	831a      	strh	r2, [r3, #24]
 8000e52:	2203      	movs	r2, #3
 8000e54:	4252      	negs	r2, r2
 8000e56:	821a      	strh	r2, [r3, #16]
 8000e58:	899a      	ldrh	r2, [r3, #12]
 8000e5a:	430a      	orrs	r2, r1
 8000e5c:	819a      	strh	r2, [r3, #12]
 8000e5e:	22c5      	movs	r2, #197	; 0xc5
 8000e60:	0092      	lsls	r2, r2, #2
 8000e62:	5881      	ldr	r1, [r0, r2]
 8000e64:	4882      	ldr	r0, [pc, #520]	; (8001070 <main+0x800>)
 8000e66:	4008      	ands	r0, r1
 8000e68:	21c0      	movs	r1, #192	; 0xc0
 8000e6a:	0409      	lsls	r1, r1, #16
 8000e6c:	4301      	orrs	r1, r0
 8000e6e:	4878      	ldr	r0, [pc, #480]	; (8001050 <main+0x7e0>)
 8000e70:	5081      	str	r1, [r0, r2]
 8000e72:	2180      	movs	r1, #128	; 0x80
 8000e74:	03c9      	lsls	r1, r1, #15
 8000e76:	6001      	str	r1, [r0, #0]
 8000e78:	2080      	movs	r0, #128	; 0x80
 8000e7a:	8819      	ldrh	r1, [r3, #0]
 8000e7c:	4301      	orrs	r1, r0
 8000e7e:	8019      	strh	r1, [r3, #0]
 8000e80:	8819      	ldrh	r1, [r3, #0]
 8000e82:	9800      	ldr	r0, [sp, #0]
 8000e84:	4301      	orrs	r1, r0
 8000e86:	8019      	strh	r1, [r3, #0]
 8000e88:	2380      	movs	r3, #128	; 0x80
 8000e8a:	69a1      	ldr	r1, [r4, #24]
 8000e8c:	029b      	lsls	r3, r3, #10
 8000e8e:	4319      	orrs	r1, r3
 8000e90:	61a1      	str	r1, [r4, #24]
 8000e92:	68e1      	ldr	r1, [r4, #12]
 8000e94:	430b      	orrs	r3, r1
 8000e96:	60e3      	str	r3, [r4, #12]
 8000e98:	68e3      	ldr	r3, [r4, #12]
 8000e9a:	4976      	ldr	r1, [pc, #472]	; (8001074 <main+0x804>)
 8000e9c:	400b      	ands	r3, r1
 8000e9e:	60e3      	str	r3, [r4, #12]
 8000ea0:	4b75      	ldr	r3, [pc, #468]	; (8001078 <main+0x808>)
 8000ea2:	9c01      	ldr	r4, [sp, #4]
 8000ea4:	8819      	ldrh	r1, [r3, #0]
 8000ea6:	4021      	ands	r1, r4
 8000ea8:	4664      	mov	r4, ip
 8000eaa:	8019      	strh	r1, [r3, #0]
 8000eac:	62de      	str	r6, [r3, #44]	; 0x2c
 8000eae:	2673      	movs	r6, #115	; 0x73
 8000eb0:	851c      	strh	r4, [r3, #40]	; 0x28
 8000eb2:	9c00      	ldr	r4, [sp, #0]
 8000eb4:	861f      	strh	r7, [r3, #48]	; 0x30
 8000eb6:	829c      	strh	r4, [r3, #20]
 8000eb8:	8c19      	ldrh	r1, [r3, #32]
 8000eba:	9c00      	ldr	r4, [sp, #0]
 8000ebc:	3702      	adds	r7, #2
 8000ebe:	43a1      	bics	r1, r4
 8000ec0:	8419      	strh	r1, [r3, #32]
 8000ec2:	8c19      	ldrh	r1, [r3, #32]
 8000ec4:	8898      	ldrh	r0, [r3, #4]
 8000ec6:	8b1c      	ldrh	r4, [r3, #24]
 8000ec8:	43b4      	bics	r4, r6
 8000eca:	3e69      	subs	r6, #105	; 0x69
 8000ecc:	43b1      	bics	r1, r6
 8000ece:	89ee      	ldrh	r6, [r5, #14]
 8000ed0:	4331      	orrs	r1, r6
 8000ed2:	2604      	movs	r6, #4
 8000ed4:	43b1      	bics	r1, r6
 8000ed6:	88ae      	ldrh	r6, [r5, #4]
 8000ed8:	4339      	orrs	r1, r7
 8000eda:	4331      	orrs	r1, r6
 8000edc:	9e01      	ldr	r6, [sp, #4]
 8000ede:	4030      	ands	r0, r6
 8000ee0:	8a2e      	ldrh	r6, [r5, #16]
 8000ee2:	8a6d      	ldrh	r5, [r5, #18]
 8000ee4:	432e      	orrs	r6, r5
 8000ee6:	4330      	orrs	r0, r6
 8000ee8:	8098      	strh	r0, [r3, #4]
 8000eea:	2064      	movs	r0, #100	; 0x64
 8000eec:	2680      	movs	r6, #128	; 0x80
 8000eee:	831c      	strh	r4, [r3, #24]
 8000ef0:	6358      	str	r0, [r3, #52]	; 0x34
 8000ef2:	8419      	strh	r1, [r3, #32]
 8000ef4:	8819      	ldrh	r1, [r3, #0]
 8000ef6:	385c      	subs	r0, #92	; 0x5c
 8000ef8:	4331      	orrs	r1, r6
 8000efa:	8019      	strh	r1, [r3, #0]
 8000efc:	8b19      	ldrh	r1, [r3, #24]
 8000efe:	4c54      	ldr	r4, [pc, #336]	; (8001050 <main+0x7e0>)
 8000f00:	4381      	bics	r1, r0
 8000f02:	4301      	orrs	r1, r0
 8000f04:	8319      	strh	r1, [r3, #24]
 8000f06:	2103      	movs	r1, #3
 8000f08:	4249      	negs	r1, r1
 8000f0a:	8219      	strh	r1, [r3, #16]
 8000f0c:	8999      	ldrh	r1, [r3, #12]
 8000f0e:	4339      	orrs	r1, r7
 8000f10:	8199      	strh	r1, [r3, #12]
 8000f12:	58a1      	ldr	r1, [r4, r2]
 8000f14:	4b4f      	ldr	r3, [pc, #316]	; (8001054 <main+0x7e4>)
 8000f16:	4019      	ands	r1, r3
 8000f18:	23c0      	movs	r3, #192	; 0xc0
 8000f1a:	021b      	lsls	r3, r3, #8
 8000f1c:	430b      	orrs	r3, r1
 8000f1e:	50a3      	str	r3, [r4, r2]
 8000f20:	2380      	movs	r3, #128	; 0x80
 8000f22:	039b      	lsls	r3, r3, #14
 8000f24:	6023      	str	r3, [r4, #0]
 8000f26:	9002      	str	r0, [sp, #8]
 8000f28:	4b54      	ldr	r3, [pc, #336]	; (800107c <main+0x80c>)
 8000f2a:	4855      	ldr	r0, [pc, #340]	; (8001080 <main+0x810>)
 8000f2c:	781b      	ldrb	r3, [r3, #0]
 8000f2e:	4c55      	ldr	r4, [pc, #340]	; (8001084 <main+0x814>)
 8000f30:	4a55      	ldr	r2, [pc, #340]	; (8001088 <main+0x818>)
 8000f32:	9301      	str	r3, [sp, #4]
 8000f34:	8803      	ldrh	r3, [r0, #0]
 8000f36:	b29b      	uxth	r3, r3
 8000f38:	9300      	str	r3, [sp, #0]
 8000f3a:	7823      	ldrb	r3, [r4, #0]
 8000f3c:	2b04      	cmp	r3, #4
 8000f3e:	d1f9      	bne.n	8000f34 <main+0x6c4>
 8000f40:	7811      	ldrb	r1, [r2, #0]
 8000f42:	b2cb      	uxtb	r3, r1
 8000f44:	2900      	cmp	r1, #0
 8000f46:	d1f5      	bne.n	8000f34 <main+0x6c4>
 8000f48:	9900      	ldr	r1, [sp, #0]
 8000f4a:	0008      	movs	r0, r1
 8000f4c:	21b4      	movs	r1, #180	; 0xb4
 8000f4e:	0049      	lsls	r1, r1, #1
 8000f50:	4288      	cmp	r0, r1
 8000f52:	d31a      	bcc.n	8000f8a <main+0x71a>
 8000f54:	2301      	movs	r3, #1
 8000f56:	7013      	strb	r3, [r2, #0]
 8000f58:	e7e6      	b.n	8000f28 <main+0x6b8>
 8000f5a:	230f      	movs	r3, #15
 8000f5c:	22c0      	movs	r2, #192	; 0xc0
 8000f5e:	6865      	ldr	r5, [r4, #4]
 8000f60:	6861      	ldr	r1, [r4, #4]
 8000f62:	0cad      	lsrs	r5, r5, #18
 8000f64:	401d      	ands	r5, r3
 8000f66:	0252      	lsls	r2, r2, #9
 8000f68:	3502      	adds	r5, #2
 8000f6a:	4211      	tst	r1, r2
 8000f6c:	d103      	bne.n	8000f76 <main+0x706>
 8000f6e:	4847      	ldr	r0, [pc, #284]	; (800108c <main+0x81c>)
 8000f70:	4345      	muls	r5, r0
 8000f72:	6035      	str	r5, [r6, #0]
 8000f74:	e4ee      	b.n	8000954 <main+0xe4>
 8000f76:	6ae1      	ldr	r1, [r4, #44]	; 0x2c
 8000f78:	4845      	ldr	r0, [pc, #276]	; (8001090 <main+0x820>)
 8000f7a:	4019      	ands	r1, r3
 8000f7c:	3101      	adds	r1, #1
 8000f7e:	f7ff f8ab 	bl	80000d8 <__udivsi3>
 8000f82:	e7f5      	b.n	8000f70 <main+0x700>
 8000f84:	9b07      	ldr	r3, [sp, #28]
 8000f86:	3b01      	subs	r3, #1
 8000f88:	e557      	b.n	8000a3a <main+0x1ca>
 8000f8a:	4a42      	ldr	r2, [pc, #264]	; (8001094 <main+0x824>)
 8000f8c:	001f      	movs	r7, r3
 8000f8e:	6815      	ldr	r5, [r2, #0]
 8000f90:	4a41      	ldr	r2, [pc, #260]	; (8001098 <main+0x828>)
 8000f92:	a914      	add	r1, sp, #80	; 0x50
 8000f94:	6816      	ldr	r6, [r2, #0]
 8000f96:	001a      	movs	r2, r3
 8000f98:	b2d0      	uxtb	r0, r2
 8000f9a:	0054      	lsls	r4, r2, #1
 8000f9c:	4684      	mov	ip, r0
 8000f9e:	5b28      	ldrh	r0, [r5, r4]
 8000fa0:	5b34      	ldrh	r4, [r6, r4]
 8000fa2:	42a0      	cmp	r0, r4
 8000fa4:	d93b      	bls.n	800101e <main+0x7ae>
 8000fa6:	1b00      	subs	r0, r0, r4
 8000fa8:	8008      	strh	r0, [r1, #0]
 8000faa:	8808      	ldrh	r0, [r1, #0]
 8000fac:	4287      	cmp	r7, r0
 8000fae:	d201      	bcs.n	8000fb4 <main+0x744>
 8000fb0:	0007      	movs	r7, r0
 8000fb2:	4663      	mov	r3, ip
 8000fb4:	3201      	adds	r2, #1
 8000fb6:	3102      	adds	r1, #2
 8000fb8:	2a80      	cmp	r2, #128	; 0x80
 8000fba:	d1ed      	bne.n	8000f98 <main+0x728>
 8000fbc:	9902      	ldr	r1, [sp, #8]
 8000fbe:	2b13      	cmp	r3, #19
 8000fc0:	d800      	bhi.n	8000fc4 <main+0x754>
 8000fc2:	2103      	movs	r1, #3
 8000fc4:	4a35      	ldr	r2, [pc, #212]	; (800109c <main+0x82c>)
 8000fc6:	7011      	strb	r1, [r2, #0]
 8000fc8:	1c0a      	adds	r2, r1, #0
 8000fca:	4299      	cmp	r1, r3
 8000fcc:	d200      	bcs.n	8000fd0 <main+0x760>
 8000fce:	1c1a      	adds	r2, r3, #0
 8000fd0:	b2d3      	uxtb	r3, r2
 8000fd2:	227f      	movs	r2, #127	; 0x7f
 8000fd4:	1a52      	subs	r2, r2, r1
 8000fd6:	4293      	cmp	r3, r2
 8000fd8:	dd00      	ble.n	8000fdc <main+0x76c>
 8000fda:	b2d3      	uxtb	r3, r2
 8000fdc:	18ca      	adds	r2, r1, r3
 8000fde:	1a5b      	subs	r3, r3, r1
 8000fe0:	2100      	movs	r1, #0
 8000fe2:	0008      	movs	r0, r1
 8000fe4:	b2d2      	uxtb	r2, r2
 8000fe6:	b2db      	uxtb	r3, r3
 8000fe8:	ad14      	add	r5, sp, #80	; 0x50
 8000fea:	b2dc      	uxtb	r4, r3
 8000fec:	42a2      	cmp	r2, r4
 8000fee:	d818      	bhi.n	8001022 <main+0x7b2>
 8000ff0:	2900      	cmp	r1, #0
 8000ff2:	d004      	beq.n	8000ffe <main+0x78e>
 8000ff4:	2364      	movs	r3, #100	; 0x64
 8000ff6:	4358      	muls	r0, r3
 8000ff8:	f7ff f86e 	bl	80000d8 <__udivsi3>
 8000ffc:	0001      	movs	r1, r0
 8000ffe:	2f31      	cmp	r7, #49	; 0x31
 8001000:	d800      	bhi.n	8001004 <main+0x794>
 8001002:	9903      	ldr	r1, [sp, #12]
 8001004:	9b00      	ldr	r3, [sp, #0]
 8001006:	9a01      	ldr	r2, [sp, #4]
 8001008:	3304      	adds	r3, #4
 800100a:	b289      	uxth	r1, r1
 800100c:	005b      	lsls	r3, r3, #1
 800100e:	2a00      	cmp	r2, #0
 8001010:	d10f      	bne.n	8001032 <main+0x7c2>
 8001012:	4a23      	ldr	r2, [pc, #140]	; (80010a0 <main+0x830>)
 8001014:	52d1      	strh	r1, [r2, r3]
 8001016:	2201      	movs	r2, #1
 8001018:	4b1b      	ldr	r3, [pc, #108]	; (8001088 <main+0x818>)
 800101a:	701a      	strb	r2, [r3, #0]
 800101c:	e784      	b.n	8000f28 <main+0x6b8>
 800101e:	2000      	movs	r0, #0
 8001020:	e7c2      	b.n	8000fa8 <main+0x738>
 8001022:	005c      	lsls	r4, r3, #1
 8001024:	5b64      	ldrh	r4, [r4, r5]
 8001026:	0026      	movs	r6, r4
 8001028:	435e      	muls	r6, r3
 800102a:	1909      	adds	r1, r1, r4
 800102c:	1980      	adds	r0, r0, r6
 800102e:	3301      	adds	r3, #1
 8001030:	e7db      	b.n	8000fea <main+0x77a>
 8001032:	4a1c      	ldr	r2, [pc, #112]	; (80010a4 <main+0x834>)
 8001034:	e7ee      	b.n	8001014 <main+0x7a4>
 8001036:	46c0      	nop			; (mov r8, r8)
 8001038:	40020008 	.word	0x40020008
 800103c:	0000fffe 	.word	0x0000fffe
 8001040:	40020000 	.word	0x40020000
 8001044:	40012440 	.word	0x40012440
 8001048:	20000052 	.word	0x20000052
 800104c:	4002001c 	.word	0x4002001c
 8001050:	e000e100 	.word	0xe000e100
 8001054:	ffff00ff 	.word	0xffff00ff
 8001058:	40013828 	.word	0x40013828
 800105c:	400200a8 	.word	0x400200a8
 8001060:	01000002 	.word	0x01000002
 8001064:	0000c350 	.word	0x0000c350
 8001068:	40014800 	.word	0x40014800
 800106c:	0000ffff 	.word	0x0000ffff
 8001070:	ff00ffff 	.word	0xff00ffff
 8001074:	fffdffff 	.word	0xfffdffff
 8001078:	40014400 	.word	0x40014400
 800107c:	20000a08 	.word	0x20000a08
 8001080:	2000004c 	.word	0x2000004c
 8001084:	20000454 	.word	0x20000454
 8001088:	20000457 	.word	0x20000457
 800108c:	003d0900 	.word	0x003d0900
 8001090:	007a1200 	.word	0x007a1200
 8001094:	20000028 	.word	0x20000028
 8001098:	2000002c 	.word	0x2000002c
 800109c:	20000010 	.word	0x20000010
 80010a0:	20000458 	.word	0x20000458
 80010a4:	20000730 	.word	0x20000730

080010a8 <SystemInit>:
 80010a8:	b513      	push	{r0, r1, r4, lr}
 80010aa:	2101      	movs	r1, #1
 80010ac:	4b36      	ldr	r3, [pc, #216]	; (8001188 <SystemInit+0xe0>)
 80010ae:	4837      	ldr	r0, [pc, #220]	; (800118c <SystemInit+0xe4>)
 80010b0:	681a      	ldr	r2, [r3, #0]
 80010b2:	24a0      	movs	r4, #160	; 0xa0
 80010b4:	430a      	orrs	r2, r1
 80010b6:	601a      	str	r2, [r3, #0]
 80010b8:	685a      	ldr	r2, [r3, #4]
 80010ba:	01e4      	lsls	r4, r4, #7
 80010bc:	4002      	ands	r2, r0
 80010be:	605a      	str	r2, [r3, #4]
 80010c0:	681a      	ldr	r2, [r3, #0]
 80010c2:	4833      	ldr	r0, [pc, #204]	; (8001190 <SystemInit+0xe8>)
 80010c4:	4002      	ands	r2, r0
 80010c6:	601a      	str	r2, [r3, #0]
 80010c8:	681a      	ldr	r2, [r3, #0]
 80010ca:	4832      	ldr	r0, [pc, #200]	; (8001194 <SystemInit+0xec>)
 80010cc:	4002      	ands	r2, r0
 80010ce:	601a      	str	r2, [r3, #0]
 80010d0:	685a      	ldr	r2, [r3, #4]
 80010d2:	4831      	ldr	r0, [pc, #196]	; (8001198 <SystemInit+0xf0>)
 80010d4:	4002      	ands	r2, r0
 80010d6:	200f      	movs	r0, #15
 80010d8:	605a      	str	r2, [r3, #4]
 80010da:	6ada      	ldr	r2, [r3, #44]	; 0x2c
 80010dc:	4382      	bics	r2, r0
 80010de:	62da      	str	r2, [r3, #44]	; 0x2c
 80010e0:	6b1a      	ldr	r2, [r3, #48]	; 0x30
 80010e2:	482e      	ldr	r0, [pc, #184]	; (800119c <SystemInit+0xf4>)
 80010e4:	4002      	ands	r2, r0
 80010e6:	631a      	str	r2, [r3, #48]	; 0x30
 80010e8:	6b5a      	ldr	r2, [r3, #52]	; 0x34
 80010ea:	2080      	movs	r0, #128	; 0x80
 80010ec:	438a      	bics	r2, r1
 80010ee:	635a      	str	r2, [r3, #52]	; 0x34
 80010f0:	2200      	movs	r2, #0
 80010f2:	609a      	str	r2, [r3, #8]
 80010f4:	9200      	str	r2, [sp, #0]
 80010f6:	9201      	str	r2, [sp, #4]
 80010f8:	2280      	movs	r2, #128	; 0x80
 80010fa:	6819      	ldr	r1, [r3, #0]
 80010fc:	0252      	lsls	r2, r2, #9
 80010fe:	0280      	lsls	r0, r0, #10
 8001100:	430a      	orrs	r2, r1
 8001102:	0001      	movs	r1, r0
 8001104:	601a      	str	r2, [r3, #0]
 8001106:	681a      	ldr	r2, [r3, #0]
 8001108:	4002      	ands	r2, r0
 800110a:	9201      	str	r2, [sp, #4]
 800110c:	9a00      	ldr	r2, [sp, #0]
 800110e:	3201      	adds	r2, #1
 8001110:	9200      	str	r2, [sp, #0]
 8001112:	9a01      	ldr	r2, [sp, #4]
 8001114:	2a00      	cmp	r2, #0
 8001116:	d102      	bne.n	800111e <SystemInit+0x76>
 8001118:	9a00      	ldr	r2, [sp, #0]
 800111a:	42a2      	cmp	r2, r4
 800111c:	d1f3      	bne.n	8001106 <SystemInit+0x5e>
 800111e:	681a      	ldr	r2, [r3, #0]
 8001120:	0010      	movs	r0, r2
 8001122:	4008      	ands	r0, r1
 8001124:	420a      	tst	r2, r1
 8001126:	d02c      	beq.n	8001182 <SystemInit+0xda>
 8001128:	2201      	movs	r2, #1
 800112a:	9201      	str	r2, [sp, #4]
 800112c:	9a01      	ldr	r2, [sp, #4]
 800112e:	2a01      	cmp	r2, #1
 8001130:	d126      	bne.n	8001180 <SystemInit+0xd8>
 8001132:	2111      	movs	r1, #17
 8001134:	4a1a      	ldr	r2, [pc, #104]	; (80011a0 <SystemInit+0xf8>)
 8001136:	6011      	str	r1, [r2, #0]
 8001138:	685a      	ldr	r2, [r3, #4]
 800113a:	491a      	ldr	r1, [pc, #104]	; (80011a4 <SystemInit+0xfc>)
 800113c:	605a      	str	r2, [r3, #4]
 800113e:	685a      	ldr	r2, [r3, #4]
 8001140:	605a      	str	r2, [r3, #4]
 8001142:	685a      	ldr	r2, [r3, #4]
 8001144:	400a      	ands	r2, r1
 8001146:	605a      	str	r2, [r3, #4]
 8001148:	2288      	movs	r2, #136	; 0x88
 800114a:	6859      	ldr	r1, [r3, #4]
 800114c:	0352      	lsls	r2, r2, #13
 800114e:	430a      	orrs	r2, r1
 8001150:	605a      	str	r2, [r3, #4]
 8001152:	2280      	movs	r2, #128	; 0x80
 8001154:	6819      	ldr	r1, [r3, #0]
 8001156:	0452      	lsls	r2, r2, #17
 8001158:	430a      	orrs	r2, r1
 800115a:	601a      	str	r2, [r3, #0]
 800115c:	2280      	movs	r2, #128	; 0x80
 800115e:	0492      	lsls	r2, r2, #18
 8001160:	6819      	ldr	r1, [r3, #0]
 8001162:	4211      	tst	r1, r2
 8001164:	d0fc      	beq.n	8001160 <SystemInit+0xb8>
 8001166:	2103      	movs	r1, #3
 8001168:	685a      	ldr	r2, [r3, #4]
 800116a:	438a      	bics	r2, r1
 800116c:	605a      	str	r2, [r3, #4]
 800116e:	2202      	movs	r2, #2
 8001170:	6859      	ldr	r1, [r3, #4]
 8001172:	430a      	orrs	r2, r1
 8001174:	210c      	movs	r1, #12
 8001176:	605a      	str	r2, [r3, #4]
 8001178:	685a      	ldr	r2, [r3, #4]
 800117a:	400a      	ands	r2, r1
 800117c:	2a08      	cmp	r2, #8
 800117e:	d1fb      	bne.n	8001178 <SystemInit+0xd0>
 8001180:	bd13      	pop	{r0, r1, r4, pc}
 8001182:	9001      	str	r0, [sp, #4]
 8001184:	e7d2      	b.n	800112c <SystemInit+0x84>
 8001186:	46c0      	nop			; (mov r8, r8)
 8001188:	40021000 	.word	0x40021000
 800118c:	08ffb80c 	.word	0x08ffb80c
 8001190:	fef6ffff 	.word	0xfef6ffff
 8001194:	fffbffff 	.word	0xfffbffff
 8001198:	ffc0ffff 	.word	0xffc0ffff
 800119c:	fffffeac 	.word	0xfffffeac
 80011a0:	40022000 	.word	0x40022000
 80011a4:	ffc07fff 	.word	0xffc07fff

080011a8 <TIM17_IRQHandler>:
 80011a8:	2202      	movs	r2, #2
 80011aa:	b5f8      	push	{r3, r4, r5, r6, r7, lr}
 80011ac:	4f74      	ldr	r7, [pc, #464]	; (8001380 <TIM17_IRQHandler+0x1d8>)
 80011ae:	8a39      	ldrh	r1, [r7, #16]
 80011b0:	89bb      	ldrh	r3, [r7, #12]
 80011b2:	b29b      	uxth	r3, r3
 80011b4:	4211      	tst	r1, r2
 80011b6:	d060      	beq.n	800127a <TIM17_IRQHandler+0xd2>
 80011b8:	4213      	tst	r3, r2
 80011ba:	d05e      	beq.n	800127a <TIM17_IRQHandler+0xd2>
 80011bc:	2303      	movs	r3, #3
 80011be:	4a71      	ldr	r2, [pc, #452]	; (8001384 <TIM17_IRQHandler+0x1dc>)
 80011c0:	425b      	negs	r3, r3
 80011c2:	823b      	strh	r3, [r7, #16]
 80011c4:	8813      	ldrh	r3, [r2, #0]
 80011c6:	4970      	ldr	r1, [pc, #448]	; (8001388 <TIM17_IRQHandler+0x1e0>)
 80011c8:	b29b      	uxth	r3, r3
 80011ca:	800b      	strh	r3, [r1, #0]
 80011cc:	6b7b      	ldr	r3, [r7, #52]	; 0x34
 80011ce:	4e6f      	ldr	r6, [pc, #444]	; (800138c <TIM17_IRQHandler+0x1e4>)
 80011d0:	b29b      	uxth	r3, r3
 80011d2:	8013      	strh	r3, [r2, #0]
 80011d4:	880b      	ldrh	r3, [r1, #0]
 80011d6:	8810      	ldrh	r0, [r2, #0]
 80011d8:	b299      	uxth	r1, r3
 80011da:	4283      	cmp	r3, r0
 80011dc:	d84e      	bhi.n	800127c <TIM17_IRQHandler+0xd4>
 80011de:	8813      	ldrh	r3, [r2, #0]
 80011e0:	22df      	movs	r2, #223	; 0xdf
 80011e2:	1a5b      	subs	r3, r3, r1
 80011e4:	b29b      	uxth	r3, r3
 80011e6:	8033      	strh	r3, [r6, #0]
 80011e8:	8831      	ldrh	r1, [r6, #0]
 80011ea:	2302      	movs	r3, #2
 80011ec:	4d68      	ldr	r5, [pc, #416]	; (8001390 <TIM17_IRQHandler+0x1e8>)
 80011ee:	0052      	lsls	r2, r2, #1
 80011f0:	4291      	cmp	r1, r2
 80011f2:	d246      	bcs.n	8001282 <TIM17_IRQHandler+0xda>
 80011f4:	8aa9      	ldrh	r1, [r5, #20]
 80011f6:	430b      	orrs	r3, r1
 80011f8:	82ab      	strh	r3, [r5, #20]
 80011fa:	2301      	movs	r3, #1
 80011fc:	8032      	strh	r2, [r6, #0]
 80011fe:	4a65      	ldr	r2, [pc, #404]	; (8001394 <TIM17_IRQHandler+0x1ec>)
 8001200:	2116      	movs	r1, #22
 8001202:	7013      	strb	r3, [r2, #0]
 8001204:	8830      	ldrh	r0, [r6, #0]
 8001206:	b280      	uxth	r0, r0
 8001208:	f7fe ff66 	bl	80000d8 <__udivsi3>
 800120c:	4b62      	ldr	r3, [pc, #392]	; (8001398 <TIM17_IRQHandler+0x1f0>)
 800120e:	b280      	uxth	r0, r0
 8001210:	8018      	strh	r0, [r3, #0]
 8001212:	4b62      	ldr	r3, [pc, #392]	; (800139c <TIM17_IRQHandler+0x1f4>)
 8001214:	4a61      	ldr	r2, [pc, #388]	; (800139c <TIM17_IRQHandler+0x1f4>)
 8001216:	781b      	ldrb	r3, [r3, #0]
 8001218:	4961      	ldr	r1, [pc, #388]	; (80013a0 <TIM17_IRQHandler+0x1f8>)
 800121a:	3301      	adds	r3, #1
 800121c:	b2db      	uxtb	r3, r3
 800121e:	7013      	strb	r3, [r2, #0]
 8001220:	2316      	movs	r3, #22
 8001222:	7812      	ldrb	r2, [r2, #0]
 8001224:	4353      	muls	r3, r2
 8001226:	4a5f      	ldr	r2, [pc, #380]	; (80013a4 <TIM17_IRQHandler+0x1fc>)
 8001228:	8013      	strh	r3, [r2, #0]
 800122a:	4b5b      	ldr	r3, [pc, #364]	; (8001398 <TIM17_IRQHandler+0x1f0>)
 800122c:	780a      	ldrb	r2, [r1, #0]
 800122e:	8818      	ldrh	r0, [r3, #0]
 8001230:	4b5d      	ldr	r3, [pc, #372]	; (80013a8 <TIM17_IRQHandler+0x200>)
 8001232:	0054      	lsls	r4, r2, #1
 8001234:	b280      	uxth	r0, r0
 8001236:	52e0      	strh	r0, [r4, r3]
 8001238:	2403      	movs	r4, #3
 800123a:	3201      	adds	r2, #1
 800123c:	4022      	ands	r2, r4
 800123e:	700a      	strb	r2, [r1, #0]
 8001240:	885a      	ldrh	r2, [r3, #2]
 8001242:	8819      	ldrh	r1, [r3, #0]
 8001244:	0080      	lsls	r0, r0, #2
 8001246:	1889      	adds	r1, r1, r2
 8001248:	889a      	ldrh	r2, [r3, #4]
 800124a:	88db      	ldrh	r3, [r3, #6]
 800124c:	1889      	adds	r1, r1, r2
 800124e:	18c9      	adds	r1, r1, r3
 8001250:	1089      	asrs	r1, r1, #2
 8001252:	b280      	uxth	r0, r0
 8001254:	2900      	cmp	r1, #0
 8001256:	d003      	beq.n	8001260 <TIM17_IRQHandler+0xb8>
 8001258:	b289      	uxth	r1, r1
 800125a:	f7fe ff3d 	bl	80000d8 <__udivsi3>
 800125e:	b280      	uxth	r0, r0
 8001260:	4c52      	ldr	r4, [pc, #328]	; (80013ac <TIM17_IRQHandler+0x204>)
 8001262:	2804      	cmp	r0, #4
 8001264:	d812      	bhi.n	800128c <TIM17_IRQHandler+0xe4>
 8001266:	4b4c      	ldr	r3, [pc, #304]	; (8001398 <TIM17_IRQHandler+0x1f0>)
 8001268:	881b      	ldrh	r3, [r3, #0]
 800126a:	3b01      	subs	r3, #1
 800126c:	b29b      	uxth	r3, r3
 800126e:	005a      	lsls	r2, r3, #1
 8001270:	045b      	lsls	r3, r3, #17
 8001272:	b292      	uxth	r2, r2
 8001274:	0c5b      	lsrs	r3, r3, #17
 8001276:	62e2      	str	r2, [r4, #44]	; 0x2c
 8001278:	6363      	str	r3, [r4, #52]	; 0x34
 800127a:	bdf8      	pop	{r3, r4, r5, r6, r7, pc}
 800127c:	8813      	ldrh	r3, [r2, #0]
 800127e:	3b01      	subs	r3, #1
 8001280:	e7ae      	b.n	80011e0 <TIM17_IRQHandler+0x38>
 8001282:	8aaa      	ldrh	r2, [r5, #20]
 8001284:	439a      	bics	r2, r3
 8001286:	82aa      	strh	r2, [r5, #20]
 8001288:	2300      	movs	r3, #0
 800128a:	e7b8      	b.n	80011fe <TIM17_IRQHandler+0x56>
 800128c:	8833      	ldrh	r3, [r6, #0]
 800128e:	2116      	movs	r1, #22
 8001290:	085b      	lsrs	r3, r3, #1
 8001292:	8033      	strh	r3, [r6, #0]
 8001294:	8830      	ldrh	r0, [r6, #0]
 8001296:	b280      	uxth	r0, r0
 8001298:	f7fe ff1e 	bl	80000d8 <__udivsi3>
 800129c:	4b3e      	ldr	r3, [pc, #248]	; (8001398 <TIM17_IRQHandler+0x1f0>)
 800129e:	b280      	uxth	r0, r0
 80012a0:	8018      	strh	r0, [r3, #0]
 80012a2:	4b43      	ldr	r3, [pc, #268]	; (80013b0 <TIM17_IRQHandler+0x208>)
 80012a4:	4943      	ldr	r1, [pc, #268]	; (80013b4 <TIM17_IRQHandler+0x20c>)
 80012a6:	881a      	ldrh	r2, [r3, #0]
 80012a8:	4e43      	ldr	r6, [pc, #268]	; (80013b8 <TIM17_IRQHandler+0x210>)
 80012aa:	b292      	uxth	r2, r2
 80012ac:	800a      	strh	r2, [r1, #0]
 80012ae:	6b7a      	ldr	r2, [r7, #52]	; 0x34
 80012b0:	b292      	uxth	r2, r2
 80012b2:	801a      	strh	r2, [r3, #0]
 80012b4:	8809      	ldrh	r1, [r1, #0]
 80012b6:	8818      	ldrh	r0, [r3, #0]
 80012b8:	b28a      	uxth	r2, r1
 80012ba:	4281      	cmp	r1, r0
 80012bc:	d856      	bhi.n	800136c <TIM17_IRQHandler+0x1c4>
 80012be:	8818      	ldrh	r0, [r3, #0]
 80012c0:	1a80      	subs	r0, r0, r2
 80012c2:	2132      	movs	r1, #50	; 0x32
 80012c4:	f7fe ff92 	bl	80001ec <__divsi3>
 80012c8:	4b34      	ldr	r3, [pc, #208]	; (800139c <TIM17_IRQHandler+0x1f4>)
 80012ca:	b280      	uxth	r0, r0
 80012cc:	8030      	strh	r0, [r6, #0]
 80012ce:	781b      	ldrb	r3, [r3, #0]
 80012d0:	4f3a      	ldr	r7, [pc, #232]	; (80013bc <TIM17_IRQHandler+0x214>)
 80012d2:	2b0f      	cmp	r3, #15
 80012d4:	d04f      	beq.n	8001376 <TIM17_IRQHandler+0x1ce>
 80012d6:	2301      	movs	r3, #1
 80012d8:	703b      	strb	r3, [r7, #0]
 80012da:	8aaa      	ldrh	r2, [r5, #20]
 80012dc:	18db      	adds	r3, r3, r3
 80012de:	4313      	orrs	r3, r2
 80012e0:	82ab      	strh	r3, [r5, #20]
 80012e2:	f7ff fa19 	bl	8000718 <stop_hardware_capture>
 80012e6:	2100      	movs	r1, #0
 80012e8:	4b35      	ldr	r3, [pc, #212]	; (80013c0 <TIM17_IRQHandler+0x218>)
 80012ea:	4a36      	ldr	r2, [pc, #216]	; (80013c4 <TIM17_IRQHandler+0x21c>)
 80012ec:	7019      	strb	r1, [r3, #0]
 80012ee:	2301      	movs	r3, #1
 80012f0:	7815      	ldrb	r5, [r2, #0]
 80012f2:	4835      	ldr	r0, [pc, #212]	; (80013c8 <TIM17_IRQHandler+0x220>)
 80012f4:	406b      	eors	r3, r5
 80012f6:	7013      	strb	r3, [r2, #0]
 80012f8:	22b6      	movs	r2, #182	; 0xb6
 80012fa:	0092      	lsls	r2, r2, #2
 80012fc:	2d01      	cmp	r5, #1
 80012fe:	d000      	beq.n	8001302 <TIM17_IRQHandler+0x15a>
 8001300:	4832      	ldr	r0, [pc, #200]	; (80013cc <TIM17_IRQHandler+0x224>)
 8001302:	f000 f8b9 	bl	8001478 <memset>
 8001306:	783b      	ldrb	r3, [r7, #0]
 8001308:	2b00      	cmp	r3, #0
 800130a:	d113      	bne.n	8001334 <TIM17_IRQHandler+0x18c>
 800130c:	4b21      	ldr	r3, [pc, #132]	; (8001394 <TIM17_IRQHandler+0x1ec>)
 800130e:	4930      	ldr	r1, [pc, #192]	; (80013d0 <TIM17_IRQHandler+0x228>)
 8001310:	781b      	ldrb	r3, [r3, #0]
 8001312:	482e      	ldr	r0, [pc, #184]	; (80013cc <TIM17_IRQHandler+0x224>)
 8001314:	1e5a      	subs	r2, r3, #1
 8001316:	4193      	sbcs	r3, r2
 8001318:	2280      	movs	r2, #128	; 0x80
 800131a:	0212      	lsls	r2, r2, #8
 800131c:	4313      	orrs	r3, r2
 800131e:	4a2d      	ldr	r2, [pc, #180]	; (80013d4 <TIM17_IRQHandler+0x22c>)
 8001320:	2d01      	cmp	r5, #1
 8001322:	d000      	beq.n	8001326 <TIM17_IRQHandler+0x17e>
 8001324:	4828      	ldr	r0, [pc, #160]	; (80013c8 <TIM17_IRQHandler+0x220>)
 8001326:	8001      	strh	r1, [r0, #0]
 8001328:	8042      	strh	r2, [r0, #2]
 800132a:	8083      	strh	r3, [r0, #4]
 800132c:	8833      	ldrh	r3, [r6, #0]
 800132e:	80c3      	strh	r3, [r0, #6]
 8001330:	f7ff f8bc 	bl	80004ac <uart_tx_dma_config.constprop.0>
 8001334:	2100      	movs	r1, #0
 8001336:	2201      	movs	r2, #1
 8001338:	4b18      	ldr	r3, [pc, #96]	; (800139c <TIM17_IRQHandler+0x1f4>)
 800133a:	7039      	strb	r1, [r7, #0]
 800133c:	7019      	strb	r1, [r3, #0]
 800133e:	4b19      	ldr	r3, [pc, #100]	; (80013a4 <TIM17_IRQHandler+0x1fc>)
 8001340:	8019      	strh	r1, [r3, #0]
 8001342:	4b15      	ldr	r3, [pc, #84]	; (8001398 <TIM17_IRQHandler+0x1f0>)
 8001344:	881b      	ldrh	r3, [r3, #0]
 8001346:	8820      	ldrh	r0, [r4, #0]
 8001348:	3b01      	subs	r3, #1
 800134a:	b29b      	uxth	r3, r3
 800134c:	4390      	bics	r0, r2
 800134e:	8020      	strh	r0, [r4, #0]
 8001350:	6261      	str	r1, [r4, #36]	; 0x24
 8001352:	0059      	lsls	r1, r3, #1
 8001354:	045b      	lsls	r3, r3, #17
 8001356:	0c5b      	lsrs	r3, r3, #17
 8001358:	b289      	uxth	r1, r1
 800135a:	62e1      	str	r1, [r4, #44]	; 0x2c
 800135c:	6363      	str	r3, [r4, #52]	; 0x34
 800135e:	8aa3      	ldrh	r3, [r4, #20]
 8001360:	4313      	orrs	r3, r2
 8001362:	82a3      	strh	r3, [r4, #20]
 8001364:	8823      	ldrh	r3, [r4, #0]
 8001366:	431a      	orrs	r2, r3
 8001368:	8022      	strh	r2, [r4, #0]
 800136a:	e786      	b.n	800127a <TIM17_IRQHandler+0xd2>
 800136c:	8818      	ldrh	r0, [r3, #0]
 800136e:	4b1a      	ldr	r3, [pc, #104]	; (80013d8 <TIM17_IRQHandler+0x230>)
 8001370:	1a80      	subs	r0, r0, r2
 8001372:	18c0      	adds	r0, r0, r3
 8001374:	e7a5      	b.n	80012c2 <TIM17_IRQHandler+0x11a>
 8001376:	2202      	movs	r2, #2
 8001378:	8aab      	ldrh	r3, [r5, #20]
 800137a:	4393      	bics	r3, r2
 800137c:	e7b0      	b.n	80012e0 <TIM17_IRQHandler+0x138>
 800137e:	46c0      	nop			; (mov r8, r8)
 8001380:	40014800 	.word	0x40014800
 8001384:	2000004e 	.word	0x2000004e
 8001388:	20000050 	.word	0x20000050
 800138c:	20000452 	.word	0x20000452
 8001390:	48000400 	.word	0x48000400
 8001394:	20000455 	.word	0x20000455
 8001398:	20000a0e 	.word	0x20000a0e
 800139c:	20000a09 	.word	0x20000a09
 80013a0:	20000456 	.word	0x20000456
 80013a4:	2000004c 	.word	0x2000004c
 80013a8:	20000a10 	.word	0x20000a10
 80013ac:	40014400 	.word	0x40014400
 80013b0:	20000a1a 	.word	0x20000a1a
 80013b4:	20000a1c 	.word	0x20000a1c
 80013b8:	20000a0a 	.word	0x20000a0a
 80013bc:	20000a0c 	.word	0x20000a0c
 80013c0:	20000454 	.word	0x20000454
 80013c4:	20000a08 	.word	0x20000a08
 80013c8:	20000458 	.word	0x20000458
 80013cc:	20000730 	.word	0x20000730
 80013d0:	ffffbbaa 	.word	0xffffbbaa
 80013d4:	ffffddcc 	.word	0xffffddcc
 80013d8:	0000ffff 	.word	0x0000ffff

080013dc <TIM16_IRQHandler>:
 80013dc:	2102      	movs	r1, #2
 80013de:	b510      	push	{r4, lr}
 80013e0:	4b1a      	ldr	r3, [pc, #104]	; (800144c <TIM16_IRQHandler+0x70>)
 80013e2:	8a18      	ldrh	r0, [r3, #16]
 80013e4:	899a      	ldrh	r2, [r3, #12]
 80013e6:	b292      	uxth	r2, r2
 80013e8:	4208      	tst	r0, r1
 80013ea:	d029      	beq.n	8001440 <TIM16_IRQHandler+0x64>
 80013ec:	420a      	tst	r2, r1
 80013ee:	d027      	beq.n	8001440 <TIM16_IRQHandler+0x64>
 80013f0:	2003      	movs	r0, #3
 80013f2:	4a17      	ldr	r2, [pc, #92]	; (8001450 <TIM16_IRQHandler+0x74>)
 80013f4:	4240      	negs	r0, r0
 80013f6:	8210      	strh	r0, [r2, #16]
 80013f8:	8a1a      	ldrh	r2, [r3, #16]
 80013fa:	438a      	bics	r2, r1
 80013fc:	821a      	strh	r2, [r3, #16]
 80013fe:	22b3      	movs	r2, #179	; 0xb3
 8001400:	4b14      	ldr	r3, [pc, #80]	; (8001454 <TIM16_IRQHandler+0x78>)
 8001402:	0052      	lsls	r2, r2, #1
 8001404:	8819      	ldrh	r1, [r3, #0]
 8001406:	4291      	cmp	r1, r2
 8001408:	d81a      	bhi.n	8001440 <TIM16_IRQHandler+0x64>
 800140a:	2100      	movs	r1, #0
 800140c:	4a12      	ldr	r2, [pc, #72]	; (8001458 <TIM16_IRQHandler+0x7c>)
 800140e:	7011      	strb	r1, [r2, #0]
 8001410:	881a      	ldrh	r2, [r3, #0]
 8001412:	3101      	adds	r1, #1
 8001414:	3201      	adds	r2, #1
 8001416:	b292      	uxth	r2, r2
 8001418:	801a      	strh	r2, [r3, #0]
 800141a:	881a      	ldrh	r2, [r3, #0]
 800141c:	3201      	adds	r2, #1
 800141e:	b292      	uxth	r2, r2
 8001420:	801a      	strh	r2, [r3, #0]
 8001422:	4b0e      	ldr	r3, [pc, #56]	; (800145c <TIM16_IRQHandler+0x80>)
 8001424:	781a      	ldrb	r2, [r3, #0]
 8001426:	404a      	eors	r2, r1
 8001428:	701a      	strb	r2, [r3, #0]
 800142a:	7818      	ldrb	r0, [r3, #0]
 800142c:	4a0c      	ldr	r2, [pc, #48]	; (8001460 <TIM16_IRQHandler+0x84>)
 800142e:	4b0d      	ldr	r3, [pc, #52]	; (8001464 <TIM16_IRQHandler+0x88>)
 8001430:	4208      	tst	r0, r1
 8001432:	d006      	beq.n	8001442 <TIM16_IRQHandler+0x66>
 8001434:	490c      	ldr	r1, [pc, #48]	; (8001468 <TIM16_IRQHandler+0x8c>)
 8001436:	6011      	str	r1, [r2, #0]
 8001438:	4a0c      	ldr	r2, [pc, #48]	; (800146c <TIM16_IRQHandler+0x90>)
 800143a:	601a      	str	r2, [r3, #0]
 800143c:	f7ff f9ca 	bl	80007d4 <meas_handler>
 8001440:	bd10      	pop	{r4, pc}
 8001442:	490b      	ldr	r1, [pc, #44]	; (8001470 <TIM16_IRQHandler+0x94>)
 8001444:	6011      	str	r1, [r2, #0]
 8001446:	4a0b      	ldr	r2, [pc, #44]	; (8001474 <TIM16_IRQHandler+0x98>)
 8001448:	e7f7      	b.n	800143a <TIM16_IRQHandler+0x5e>
 800144a:	46c0      	nop			; (mov r8, r8)
 800144c:	40014400 	.word	0x40014400
 8001450:	40014800 	.word	0x40014800
 8001454:	2000004c 	.word	0x2000004c
 8001458:	20000454 	.word	0x20000454
 800145c:	20000a18 	.word	0x20000a18
 8001460:	20000028 	.word	0x20000028
 8001464:	2000002c 	.word	0x2000002c
 8001468:	20000052 	.word	0x20000052
 800146c:	20000252 	.word	0x20000252
 8001470:	20000152 	.word	0x20000152
 8001474:	20000352 	.word	0x20000352

08001478 <memset>:
 8001478:	0003      	movs	r3, r0
 800147a:	1882      	adds	r2, r0, r2
 800147c:	4293      	cmp	r3, r2
 800147e:	d100      	bne.n	8001482 <memset+0xa>
 8001480:	4770      	bx	lr
 8001482:	7019      	strb	r1, [r3, #0]
 8001484:	3301      	adds	r3, #1
 8001486:	e7f9      	b.n	800147c <memset+0x4>

08001488 <_init>:
 8001488:	b5f8      	push	{r3, r4, r5, r6, r7, lr}
 800148a:	46c0      	nop			; (mov r8, r8)
 800148c:	bcf8      	pop	{r3, r4, r5, r6, r7}
 800148e:	bc08      	pop	{r3}
 8001490:	469e      	mov	lr, r3
 8001492:	4770      	bx	lr

08001494 <_fini>:
 8001494:	b5f8      	push	{r3, r4, r5, r6, r7, lr}
 8001496:	46c0      	nop			; (mov r8, r8)
 8001498:	bcf8      	pop	{r3, r4, r5, r6, r7}
 800149a:	bc08      	pop	{r3}
 800149c:	469e      	mov	lr, r3
 800149e:	4770      	bx	lr
